ARM GAS  C:\Users\justi\AppData\Local\Temp\ccHtmjHL.s 			page 1


   1              		.cpu cortex-m0plus
   2              		.arch armv6s-m
   3              		.fpu softvfp
   4              		.eabi_attribute 20, 1
   5              		.eabi_attribute 21, 1
   6              		.eabi_attribute 23, 3
   7              		.eabi_attribute 24, 1
   8              		.eabi_attribute 25, 1
   9              		.eabi_attribute 26, 1
  10              		.eabi_attribute 30, 1
  11              		.eabi_attribute 34, 0
  12              		.eabi_attribute 18, 4
  13              		.file	"usart.c"
  14              		.text
  15              	.Ltext0:
  16              		.cfi_sections	.debug_frame
  17              		.file 1 "Core/Src/usart.c"
  18              		.section	.text.MX_USART2_UART_Init,"ax",%progbits
  19              		.align	1
  20              		.global	MX_USART2_UART_Init
  21              		.syntax unified
  22              		.code	16
  23              		.thumb_func
  25              	MX_USART2_UART_Init:
  26              	.LFB40:
   1:Core/Src/usart.c **** /* USER CODE BEGIN Header */
   2:Core/Src/usart.c **** /**
   3:Core/Src/usart.c ****   ******************************************************************************
   4:Core/Src/usart.c ****   * @file    usart.c
   5:Core/Src/usart.c ****   * @brief   This file provides code for the configuration
   6:Core/Src/usart.c ****   *          of the USART instances.
   7:Core/Src/usart.c ****   ******************************************************************************
   8:Core/Src/usart.c ****   * @attention
   9:Core/Src/usart.c ****   *
  10:Core/Src/usart.c ****   * Copyright (c) 2024 STMicroelectronics.
  11:Core/Src/usart.c ****   * All rights reserved.
  12:Core/Src/usart.c ****   *
  13:Core/Src/usart.c ****   * This software is licensed under terms that can be found in the LICENSE file
  14:Core/Src/usart.c ****   * in the root directory of this software component.
  15:Core/Src/usart.c ****   * If no LICENSE file comes with this software, it is provided AS-IS.
  16:Core/Src/usart.c ****   *
  17:Core/Src/usart.c ****   ******************************************************************************
  18:Core/Src/usart.c ****   */
  19:Core/Src/usart.c **** /* USER CODE END Header */
  20:Core/Src/usart.c **** /* Includes ------------------------------------------------------------------*/
  21:Core/Src/usart.c **** #include "usart.h"
  22:Core/Src/usart.c **** 
  23:Core/Src/usart.c **** /* USER CODE BEGIN 0 */
  24:Core/Src/usart.c **** 
  25:Core/Src/usart.c **** /* USER CODE END 0 */
  26:Core/Src/usart.c **** 
  27:Core/Src/usart.c **** UART_HandleTypeDef huart2;
  28:Core/Src/usart.c **** 
  29:Core/Src/usart.c **** /* USART2 init function */
  30:Core/Src/usart.c **** 
  31:Core/Src/usart.c **** void MX_USART2_UART_Init(void)
  32:Core/Src/usart.c **** {
ARM GAS  C:\Users\justi\AppData\Local\Temp\ccHtmjHL.s 			page 2


  27              		.loc 1 32 1 view -0
  28              		.cfi_startproc
  29              		@ args = 0, pretend = 0, frame = 0
  30              		@ frame_needed = 0, uses_anonymous_args = 0
  31 0000 10B5     		push	{r4, lr}
  32              		.cfi_def_cfa_offset 8
  33              		.cfi_offset 4, -8
  34              		.cfi_offset 14, -4
  33:Core/Src/usart.c **** 
  34:Core/Src/usart.c ****   /* USER CODE BEGIN USART2_Init 0 */
  35:Core/Src/usart.c **** 
  36:Core/Src/usart.c ****   /* USER CODE END USART2_Init 0 */
  37:Core/Src/usart.c **** 
  38:Core/Src/usart.c ****   /* USER CODE BEGIN USART2_Init 1 */
  39:Core/Src/usart.c **** 
  40:Core/Src/usart.c ****   /* USER CODE END USART2_Init 1 */
  41:Core/Src/usart.c ****   huart2.Instance = USART2;
  35              		.loc 1 41 3 view .LVU1
  36              		.loc 1 41 19 is_stmt 0 view .LVU2
  37 0002 0C48     		ldr	r0, .L4
  38 0004 0C4B     		ldr	r3, .L4+4
  39 0006 0360     		str	r3, [r0]
  42:Core/Src/usart.c ****   huart2.Init.BaudRate = 1200;
  40              		.loc 1 42 3 is_stmt 1 view .LVU3
  41              		.loc 1 42 24 is_stmt 0 view .LVU4
  42 0008 9623     		movs	r3, #150
  43 000a DB00     		lsls	r3, r3, #3
  44 000c 4360     		str	r3, [r0, #4]
  43:Core/Src/usart.c ****   huart2.Init.WordLength = UART_WORDLENGTH_8B;
  45              		.loc 1 43 3 is_stmt 1 view .LVU5
  46              		.loc 1 43 26 is_stmt 0 view .LVU6
  47 000e 0023     		movs	r3, #0
  48 0010 8360     		str	r3, [r0, #8]
  44:Core/Src/usart.c ****   huart2.Init.StopBits = UART_STOPBITS_1;
  49              		.loc 1 44 3 is_stmt 1 view .LVU7
  50              		.loc 1 44 24 is_stmt 0 view .LVU8
  51 0012 C360     		str	r3, [r0, #12]
  45:Core/Src/usart.c ****   huart2.Init.Parity = UART_PARITY_NONE;
  52              		.loc 1 45 3 is_stmt 1 view .LVU9
  53              		.loc 1 45 22 is_stmt 0 view .LVU10
  54 0014 0361     		str	r3, [r0, #16]
  46:Core/Src/usart.c ****   huart2.Init.Mode = UART_MODE_TX;
  55              		.loc 1 46 3 is_stmt 1 view .LVU11
  56              		.loc 1 46 20 is_stmt 0 view .LVU12
  57 0016 0822     		movs	r2, #8
  58 0018 4261     		str	r2, [r0, #20]
  47:Core/Src/usart.c ****   huart2.Init.HwFlowCtl = UART_HWCONTROL_NONE;
  59              		.loc 1 47 3 is_stmt 1 view .LVU13
  60              		.loc 1 47 25 is_stmt 0 view .LVU14
  61 001a 8361     		str	r3, [r0, #24]
  48:Core/Src/usart.c ****   huart2.Init.OverSampling = UART_OVERSAMPLING_16;
  62              		.loc 1 48 3 is_stmt 1 view .LVU15
  63              		.loc 1 48 28 is_stmt 0 view .LVU16
  64 001c C361     		str	r3, [r0, #28]
  49:Core/Src/usart.c ****   huart2.Init.OneBitSampling = UART_ONE_BIT_SAMPLE_DISABLE;
  65              		.loc 1 49 3 is_stmt 1 view .LVU17
  66              		.loc 1 49 30 is_stmt 0 view .LVU18
ARM GAS  C:\Users\justi\AppData\Local\Temp\ccHtmjHL.s 			page 3


  67 001e 0362     		str	r3, [r0, #32]
  50:Core/Src/usart.c ****   huart2.AdvancedInit.AdvFeatureInit = UART_ADVFEATURE_NO_INIT;
  68              		.loc 1 50 3 is_stmt 1 view .LVU19
  69              		.loc 1 50 38 is_stmt 0 view .LVU20
  70 0020 4362     		str	r3, [r0, #36]
  51:Core/Src/usart.c ****   if (HAL_HalfDuplex_Init(&huart2) != HAL_OK)
  71              		.loc 1 51 3 is_stmt 1 view .LVU21
  72              		.loc 1 51 7 is_stmt 0 view .LVU22
  73 0022 FFF7FEFF 		bl	HAL_HalfDuplex_Init
  74              	.LVL0:
  75              		.loc 1 51 6 view .LVU23
  76 0026 0028     		cmp	r0, #0
  77 0028 00D1     		bne	.L3
  78              	.L1:
  52:Core/Src/usart.c ****   {
  53:Core/Src/usart.c ****     Error_Handler();
  54:Core/Src/usart.c ****   }
  55:Core/Src/usart.c ****   /* USER CODE BEGIN USART2_Init 2 */
  56:Core/Src/usart.c **** 
  57:Core/Src/usart.c ****   /* USER CODE END USART2_Init 2 */
  58:Core/Src/usart.c **** 
  59:Core/Src/usart.c **** }
  79              		.loc 1 59 1 view .LVU24
  80              		@ sp needed
  81 002a 10BD     		pop	{r4, pc}
  82              	.L3:
  53:Core/Src/usart.c ****   }
  83              		.loc 1 53 5 is_stmt 1 view .LVU25
  84 002c FFF7FEFF 		bl	Error_Handler
  85              	.LVL1:
  86              		.loc 1 59 1 is_stmt 0 view .LVU26
  87 0030 FBE7     		b	.L1
  88              	.L5:
  89 0032 C046     		.align	2
  90              	.L4:
  91 0034 00000000 		.word	huart2
  92 0038 00440040 		.word	1073759232
  93              		.cfi_endproc
  94              	.LFE40:
  96              		.section	.text.HAL_UART_MspInit,"ax",%progbits
  97              		.align	1
  98              		.global	HAL_UART_MspInit
  99              		.syntax unified
 100              		.code	16
 101              		.thumb_func
 103              	HAL_UART_MspInit:
 104              	.LVL2:
 105              	.LFB41:
  60:Core/Src/usart.c **** 
  61:Core/Src/usart.c **** void HAL_UART_MspInit(UART_HandleTypeDef* uartHandle)
  62:Core/Src/usart.c **** {
 106              		.loc 1 62 1 is_stmt 1 view -0
 107              		.cfi_startproc
 108              		@ args = 0, pretend = 0, frame = 24
 109              		@ frame_needed = 0, uses_anonymous_args = 0
 110              		.loc 1 62 1 is_stmt 0 view .LVU28
 111 0000 10B5     		push	{r4, lr}
ARM GAS  C:\Users\justi\AppData\Local\Temp\ccHtmjHL.s 			page 4


 112              		.cfi_def_cfa_offset 8
 113              		.cfi_offset 4, -8
 114              		.cfi_offset 14, -4
 115 0002 86B0     		sub	sp, sp, #24
 116              		.cfi_def_cfa_offset 32
 117 0004 0400     		movs	r4, r0
  63:Core/Src/usart.c **** 
  64:Core/Src/usart.c ****   GPIO_InitTypeDef GPIO_InitStruct = {0};
 118              		.loc 1 64 3 is_stmt 1 view .LVU29
 119              		.loc 1 64 20 is_stmt 0 view .LVU30
 120 0006 1422     		movs	r2, #20
 121 0008 0021     		movs	r1, #0
 122 000a 01A8     		add	r0, sp, #4
 123              	.LVL3:
 124              		.loc 1 64 20 view .LVU31
 125 000c FFF7FEFF 		bl	memset
 126              	.LVL4:
  65:Core/Src/usart.c ****   if(uartHandle->Instance==USART2)
 127              		.loc 1 65 3 is_stmt 1 view .LVU32
 128              		.loc 1 65 16 is_stmt 0 view .LVU33
 129 0010 2268     		ldr	r2, [r4]
 130              		.loc 1 65 5 view .LVU34
 131 0012 104B     		ldr	r3, .L9
 132 0014 9A42     		cmp	r2, r3
 133 0016 01D0     		beq	.L8
 134              	.L6:
  66:Core/Src/usart.c ****   {
  67:Core/Src/usart.c ****   /* USER CODE BEGIN USART2_MspInit 0 */
  68:Core/Src/usart.c **** 
  69:Core/Src/usart.c ****   /* USER CODE END USART2_MspInit 0 */
  70:Core/Src/usart.c ****     /* USART2 clock enable */
  71:Core/Src/usart.c ****     __HAL_RCC_USART2_CLK_ENABLE();
  72:Core/Src/usart.c **** 
  73:Core/Src/usart.c ****     __HAL_RCC_GPIOA_CLK_ENABLE();
  74:Core/Src/usart.c ****     /**USART2 GPIO Configuration
  75:Core/Src/usart.c ****     PA2     ------> USART2_TX
  76:Core/Src/usart.c ****     */
  77:Core/Src/usart.c ****     GPIO_InitStruct.Pin = GPIO_PIN_2;
  78:Core/Src/usart.c ****     GPIO_InitStruct.Mode = GPIO_MODE_AF_OD;
  79:Core/Src/usart.c ****     GPIO_InitStruct.Pull = GPIO_PULLUP;
  80:Core/Src/usart.c ****     GPIO_InitStruct.Speed = GPIO_SPEED_FREQ_VERY_HIGH;
  81:Core/Src/usart.c ****     GPIO_InitStruct.Alternate = GPIO_AF4_USART2;
  82:Core/Src/usart.c ****     HAL_GPIO_Init(GPIOA, &GPIO_InitStruct);
  83:Core/Src/usart.c **** 
  84:Core/Src/usart.c ****   /* USER CODE BEGIN USART2_MspInit 1 */
  85:Core/Src/usart.c **** 
  86:Core/Src/usart.c ****   /* USER CODE END USART2_MspInit 1 */
  87:Core/Src/usart.c ****   }
  88:Core/Src/usart.c **** }
 135              		.loc 1 88 1 view .LVU35
 136 0018 06B0     		add	sp, sp, #24
 137              		@ sp needed
 138              	.LVL5:
 139              		.loc 1 88 1 view .LVU36
 140 001a 10BD     		pop	{r4, pc}
 141              	.LVL6:
 142              	.L8:
ARM GAS  C:\Users\justi\AppData\Local\Temp\ccHtmjHL.s 			page 5


  71:Core/Src/usart.c **** 
 143              		.loc 1 71 5 is_stmt 1 view .LVU37
 144 001c 0E4B     		ldr	r3, .L9+4
 145 001e 996B     		ldr	r1, [r3, #56]
 146 0020 8022     		movs	r2, #128
 147 0022 9202     		lsls	r2, r2, #10
 148 0024 0A43     		orrs	r2, r1
 149 0026 9A63     		str	r2, [r3, #56]
  73:Core/Src/usart.c ****     /**USART2 GPIO Configuration
 150              		.loc 1 73 5 view .LVU38
 151              	.LBB2:
  73:Core/Src/usart.c ****     /**USART2 GPIO Configuration
 152              		.loc 1 73 5 view .LVU39
  73:Core/Src/usart.c ****     /**USART2 GPIO Configuration
 153              		.loc 1 73 5 view .LVU40
 154 0028 D96A     		ldr	r1, [r3, #44]
 155 002a 0122     		movs	r2, #1
 156 002c 1143     		orrs	r1, r2
 157 002e D962     		str	r1, [r3, #44]
  73:Core/Src/usart.c ****     /**USART2 GPIO Configuration
 158              		.loc 1 73 5 view .LVU41
 159 0030 DB6A     		ldr	r3, [r3, #44]
 160 0032 1340     		ands	r3, r2
 161 0034 0093     		str	r3, [sp]
  73:Core/Src/usart.c ****     /**USART2 GPIO Configuration
 162              		.loc 1 73 5 view .LVU42
 163 0036 009B     		ldr	r3, [sp]
 164              	.LBE2:
  73:Core/Src/usart.c ****     /**USART2 GPIO Configuration
 165              		.loc 1 73 5 view .LVU43
  77:Core/Src/usart.c ****     GPIO_InitStruct.Mode = GPIO_MODE_AF_OD;
 166              		.loc 1 77 5 view .LVU44
  77:Core/Src/usart.c ****     GPIO_InitStruct.Mode = GPIO_MODE_AF_OD;
 167              		.loc 1 77 25 is_stmt 0 view .LVU45
 168 0038 0423     		movs	r3, #4
 169 003a 0193     		str	r3, [sp, #4]
  78:Core/Src/usart.c ****     GPIO_InitStruct.Pull = GPIO_PULLUP;
 170              		.loc 1 78 5 is_stmt 1 view .LVU46
  78:Core/Src/usart.c ****     GPIO_InitStruct.Pull = GPIO_PULLUP;
 171              		.loc 1 78 26 is_stmt 0 view .LVU47
 172 003c 1221     		movs	r1, #18
 173 003e 0291     		str	r1, [sp, #8]
  79:Core/Src/usart.c ****     GPIO_InitStruct.Speed = GPIO_SPEED_FREQ_VERY_HIGH;
 174              		.loc 1 79 5 is_stmt 1 view .LVU48
  79:Core/Src/usart.c ****     GPIO_InitStruct.Speed = GPIO_SPEED_FREQ_VERY_HIGH;
 175              		.loc 1 79 26 is_stmt 0 view .LVU49
 176 0040 0392     		str	r2, [sp, #12]
  80:Core/Src/usart.c ****     GPIO_InitStruct.Alternate = GPIO_AF4_USART2;
 177              		.loc 1 80 5 is_stmt 1 view .LVU50
  80:Core/Src/usart.c ****     GPIO_InitStruct.Alternate = GPIO_AF4_USART2;
 178              		.loc 1 80 27 is_stmt 0 view .LVU51
 179 0042 0232     		adds	r2, r2, #2
 180 0044 0492     		str	r2, [sp, #16]
  81:Core/Src/usart.c ****     HAL_GPIO_Init(GPIOA, &GPIO_InitStruct);
 181              		.loc 1 81 5 is_stmt 1 view .LVU52
  81:Core/Src/usart.c ****     HAL_GPIO_Init(GPIOA, &GPIO_InitStruct);
 182              		.loc 1 81 31 is_stmt 0 view .LVU53
ARM GAS  C:\Users\justi\AppData\Local\Temp\ccHtmjHL.s 			page 6


 183 0046 0593     		str	r3, [sp, #20]
  82:Core/Src/usart.c **** 
 184              		.loc 1 82 5 is_stmt 1 view .LVU54
 185 0048 A020     		movs	r0, #160
 186 004a 01A9     		add	r1, sp, #4
 187 004c C005     		lsls	r0, r0, #23
 188 004e FFF7FEFF 		bl	HAL_GPIO_Init
 189              	.LVL7:
 190              		.loc 1 88 1 is_stmt 0 view .LVU55
 191 0052 E1E7     		b	.L6
 192              	.L10:
 193              		.align	2
 194              	.L9:
 195 0054 00440040 		.word	1073759232
 196 0058 00100240 		.word	1073876992
 197              		.cfi_endproc
 198              	.LFE41:
 200              		.section	.text.HAL_UART_MspDeInit,"ax",%progbits
 201              		.align	1
 202              		.global	HAL_UART_MspDeInit
 203              		.syntax unified
 204              		.code	16
 205              		.thumb_func
 207              	HAL_UART_MspDeInit:
 208              	.LVL8:
 209              	.LFB42:
  89:Core/Src/usart.c **** 
  90:Core/Src/usart.c **** void HAL_UART_MspDeInit(UART_HandleTypeDef* uartHandle)
  91:Core/Src/usart.c **** {
 210              		.loc 1 91 1 is_stmt 1 view -0
 211              		.cfi_startproc
 212              		@ args = 0, pretend = 0, frame = 0
 213              		@ frame_needed = 0, uses_anonymous_args = 0
 214              		.loc 1 91 1 is_stmt 0 view .LVU57
 215 0000 10B5     		push	{r4, lr}
 216              		.cfi_def_cfa_offset 8
 217              		.cfi_offset 4, -8
 218              		.cfi_offset 14, -4
  92:Core/Src/usart.c **** 
  93:Core/Src/usart.c ****   if(uartHandle->Instance==USART2)
 219              		.loc 1 93 3 is_stmt 1 view .LVU58
 220              		.loc 1 93 16 is_stmt 0 view .LVU59
 221 0002 0268     		ldr	r2, [r0]
 222              		.loc 1 93 5 view .LVU60
 223 0004 074B     		ldr	r3, .L14
 224 0006 9A42     		cmp	r2, r3
 225 0008 00D0     		beq	.L13
 226              	.LVL9:
 227              	.L11:
  94:Core/Src/usart.c ****   {
  95:Core/Src/usart.c ****   /* USER CODE BEGIN USART2_MspDeInit 0 */
  96:Core/Src/usart.c **** 
  97:Core/Src/usart.c ****   /* USER CODE END USART2_MspDeInit 0 */
  98:Core/Src/usart.c ****     /* Peripheral clock disable */
  99:Core/Src/usart.c ****     __HAL_RCC_USART2_CLK_DISABLE();
 100:Core/Src/usart.c **** 
 101:Core/Src/usart.c ****     /**USART2 GPIO Configuration
ARM GAS  C:\Users\justi\AppData\Local\Temp\ccHtmjHL.s 			page 7


 102:Core/Src/usart.c ****     PA2     ------> USART2_TX
 103:Core/Src/usart.c ****     */
 104:Core/Src/usart.c ****     HAL_GPIO_DeInit(GPIOA, GPIO_PIN_2);
 105:Core/Src/usart.c **** 
 106:Core/Src/usart.c ****   /* USER CODE BEGIN USART2_MspDeInit 1 */
 107:Core/Src/usart.c **** 
 108:Core/Src/usart.c ****   /* USER CODE END USART2_MspDeInit 1 */
 109:Core/Src/usart.c ****   }
 110:Core/Src/usart.c **** }
 228              		.loc 1 110 1 view .LVU61
 229              		@ sp needed
 230 000a 10BD     		pop	{r4, pc}
 231              	.LVL10:
 232              	.L13:
  99:Core/Src/usart.c **** 
 233              		.loc 1 99 5 is_stmt 1 view .LVU62
 234 000c 064A     		ldr	r2, .L14+4
 235 000e 936B     		ldr	r3, [r2, #56]
 236 0010 0649     		ldr	r1, .L14+8
 237 0012 0B40     		ands	r3, r1
 238 0014 9363     		str	r3, [r2, #56]
 104:Core/Src/usart.c **** 
 239              		.loc 1 104 5 view .LVU63
 240 0016 A020     		movs	r0, #160
 241              	.LVL11:
 104:Core/Src/usart.c **** 
 242              		.loc 1 104 5 is_stmt 0 view .LVU64
 243 0018 0421     		movs	r1, #4
 244 001a C005     		lsls	r0, r0, #23
 245 001c FFF7FEFF 		bl	HAL_GPIO_DeInit
 246              	.LVL12:
 247              		.loc 1 110 1 view .LVU65
 248 0020 F3E7     		b	.L11
 249              	.L15:
 250 0022 C046     		.align	2
 251              	.L14:
 252 0024 00440040 		.word	1073759232
 253 0028 00100240 		.word	1073876992
 254 002c FFFFFDFF 		.word	-131073
 255              		.cfi_endproc
 256              	.LFE42:
 258              		.global	huart2
 259              		.section	.bss.huart2,"aw",%nobits
 260              		.align	2
 263              	huart2:
 264 0000 00000000 		.space	136
 264      00000000 
 264      00000000 
 264      00000000 
 264      00000000 
 265              		.text
 266              	.Letext0:
 267              		.file 2 "c:\\users\\justi\\appdata\\roaming\\code\\user\\globalstorage\\bmd.stm32-for-vscode\\@xpa
 268              		.file 3 "c:\\users\\justi\\appdata\\roaming\\code\\user\\globalstorage\\bmd.stm32-for-vscode\\@xpa
 269              		.file 4 "Drivers/CMSIS/Device/ST/STM32L0xx/Include/stm32l010x4.h"
 270              		.file 5 "Drivers/STM32L0xx_HAL_Driver/Inc/stm32l0xx_hal_def.h"
 271              		.file 6 "Drivers/STM32L0xx_HAL_Driver/Inc/stm32l0xx_hal_gpio.h"
ARM GAS  C:\Users\justi\AppData\Local\Temp\ccHtmjHL.s 			page 8


 272              		.file 7 "Drivers/STM32L0xx_HAL_Driver/Inc/stm32l0xx_hal_dma.h"
 273              		.file 8 "Drivers/STM32L0xx_HAL_Driver/Inc/stm32l0xx_hal_uart.h"
 274              		.file 9 "Core/Inc/usart.h"
 275              		.file 10 "Core/Inc/main.h"
 276              		.file 11 "<built-in>"
ARM GAS  C:\Users\justi\AppData\Local\Temp\ccHtmjHL.s 			page 9

