ARM GAS  C:\Users\justi\AppData\Local\Temp\ccXAmVZp.s 			page 1


   1              		.cpu cortex-m4
   2              		.arch armv7e-m
   3              		.fpu fpv4-sp-d16
   4              		.eabi_attribute 27, 1
   5              		.eabi_attribute 28, 1
   6              		.eabi_attribute 20, 1
   7              		.eabi_attribute 21, 1
   8              		.eabi_attribute 23, 3
   9              		.eabi_attribute 24, 1
  10              		.eabi_attribute 25, 1
  11              		.eabi_attribute 26, 1
  12              		.eabi_attribute 30, 1
  13              		.eabi_attribute 34, 1
  14              		.eabi_attribute 18, 4
  15              		.file	"main.c"
  16              		.text
  17              	.Ltext0:
  18              		.cfi_sections	.debug_frame
  19              		.file 1 "Core/Src/main.c"
  20              		.section	.text.clear_rx_data,"ax",%progbits
  21              		.align	1
  22              		.global	clear_rx_data
  23              		.syntax unified
  24              		.thumb
  25              		.thumb_func
  27              	clear_rx_data:
  28              	.LFB132:
   1:Core/Src/main.c **** /* USER CODE BEGIN Header */
   2:Core/Src/main.c **** /**
   3:Core/Src/main.c ****   ******************************************************************************
   4:Core/Src/main.c ****   * @file           : main.c
   5:Core/Src/main.c ****   * @brief          : Main program body
   6:Core/Src/main.c ****   ******************************************************************************
   7:Core/Src/main.c ****   * @attention
   8:Core/Src/main.c ****   *
   9:Core/Src/main.c ****   * Copyright (c) 2024 STMicroelectronics.
  10:Core/Src/main.c ****   * All rights reserved.
  11:Core/Src/main.c ****   *
  12:Core/Src/main.c ****   * This software is licensed under terms that can be found in the LICENSE file
  13:Core/Src/main.c ****   * in the root directory of this software component.
  14:Core/Src/main.c ****   * If no LICENSE file comes with this software, it is provided AS-IS.
  15:Core/Src/main.c ****   *
  16:Core/Src/main.c ****   ******************************************************************************
  17:Core/Src/main.c ****   */
  18:Core/Src/main.c **** /* USER CODE END Header */
  19:Core/Src/main.c **** /* Includes ------------------------------------------------------------------*/
  20:Core/Src/main.c **** #include "main.h"
  21:Core/Src/main.c **** #include "spi.h"
  22:Core/Src/main.c **** #include "usart.h"
  23:Core/Src/main.c **** #include "gpio.h"
  24:Core/Src/main.c **** 
  25:Core/Src/main.c **** /* Private includes ----------------------------------------------------------*/
  26:Core/Src/main.c **** /* USER CODE BEGIN Includes */
  27:Core/Src/main.c **** #include "lcd_stm32f0.h"
  28:Core/Src/main.c **** /* USER CODE END Includes */
  29:Core/Src/main.c **** 
  30:Core/Src/main.c **** /* Private typedef -----------------------------------------------------------*/
ARM GAS  C:\Users\justi\AppData\Local\Temp\ccXAmVZp.s 			page 2


  31:Core/Src/main.c **** /* USER CODE BEGIN PTD */
  32:Core/Src/main.c **** 
  33:Core/Src/main.c **** /* USER CODE END PTD */
  34:Core/Src/main.c **** 
  35:Core/Src/main.c **** /* Private define ------------------------------------------------------------*/
  36:Core/Src/main.c **** /* USER CODE BEGIN PD */
  37:Core/Src/main.c **** #define DATA_LENGTH 7
  38:Core/Src/main.c **** #define RX_START 0x54
  39:Core/Src/main.c **** #define RX_END 0x70
  40:Core/Src/main.c **** /* USER CODE END PD */
  41:Core/Src/main.c **** 
  42:Core/Src/main.c **** /* Private macro -------------------------------------------------------------*/
  43:Core/Src/main.c **** /* USER CODE BEGIN PM */
  44:Core/Src/main.c **** 
  45:Core/Src/main.c **** /* USER CODE END PM */
  46:Core/Src/main.c **** 
  47:Core/Src/main.c **** /* Private variables ---------------------------------------------------------*/
  48:Core/Src/main.c **** 
  49:Core/Src/main.c **** /* USER CODE BEGIN PV */
  50:Core/Src/main.c **** uint8_t led_val = 0;
  51:Core/Src/main.c **** uint16_t delay_ms = 500;
  52:Core/Src/main.c **** 
  53:Core/Src/main.c **** uint8_t last_device_id = 0;
  54:Core/Src/main.c **** uint8_t last_sensor = 0;
  55:Core/Src/main.c **** uint16_t last_heartbeat = 0;
  56:Core/Src/main.c **** uint16_t last_val = 0;
  57:Core/Src/main.c **** 
  58:Core/Src/main.c **** char incoming_byte;
  59:Core/Src/main.c **** uint8_t output_buff[5];
  60:Core/Src/main.c **** volatile char recvd_data[DATA_LENGTH];
  61:Core/Src/main.c **** char line_one[25];
  62:Core/Src/main.c **** char line_two[25];
  63:Core/Src/main.c **** uint16_t cnt = 0;
  64:Core/Src/main.c **** /* USER CODE END PV */
  65:Core/Src/main.c **** 
  66:Core/Src/main.c **** /* Private function prototypes -----------------------------------------------*/
  67:Core/Src/main.c **** void SystemClock_Config(void);
  68:Core/Src/main.c **** /* USER CODE BEGIN PFP */
  69:Core/Src/main.c **** 
  70:Core/Src/main.c **** /* USER CODE END PFP */
  71:Core/Src/main.c **** 
  72:Core/Src/main.c **** /* Private user code ---------------------------------------------------------*/
  73:Core/Src/main.c **** /* USER CODE BEGIN 0 */
  74:Core/Src/main.c **** 
  75:Core/Src/main.c **** /* USER CODE END 0 */
  76:Core/Src/main.c **** 
  77:Core/Src/main.c **** /**
  78:Core/Src/main.c ****   * @brief  The application entry point.
  79:Core/Src/main.c ****   * @retval int
  80:Core/Src/main.c ****   */
  81:Core/Src/main.c **** int main(void)
  82:Core/Src/main.c **** {
  83:Core/Src/main.c ****   /* USER CODE BEGIN 1 */
  84:Core/Src/main.c **** 
  85:Core/Src/main.c ****   /* USER CODE END 1 */
  86:Core/Src/main.c **** 
  87:Core/Src/main.c ****   /* MCU Configuration--------------------------------------------------------*/
ARM GAS  C:\Users\justi\AppData\Local\Temp\ccXAmVZp.s 			page 3


  88:Core/Src/main.c **** 
  89:Core/Src/main.c ****   /* Reset of all peripherals, Initializes the Flash interface and the Systick. */
  90:Core/Src/main.c ****   HAL_Init();
  91:Core/Src/main.c **** 
  92:Core/Src/main.c ****   /* USER CODE BEGIN Init */
  93:Core/Src/main.c **** 
  94:Core/Src/main.c ****   /* USER CODE END Init */
  95:Core/Src/main.c **** 
  96:Core/Src/main.c ****   /* Configure the system clock */
  97:Core/Src/main.c ****   SystemClock_Config();
  98:Core/Src/main.c **** 
  99:Core/Src/main.c ****   /* USER CODE BEGIN SysInit */
 100:Core/Src/main.c **** 
 101:Core/Src/main.c ****   /* USER CODE END SysInit */
 102:Core/Src/main.c **** 
 103:Core/Src/main.c ****   /* Initialize all configured peripherals */
 104:Core/Src/main.c ****   MX_GPIO_Init();
 105:Core/Src/main.c ****   MX_UART5_Init();
 106:Core/Src/main.c ****   MX_USART1_UART_Init();
 107:Core/Src/main.c ****   MX_SPI2_Init();
 108:Core/Src/main.c ****   MX_FATFS_Init();
 109:Core/Src/main.c ****   /* USER CODE BEGIN 2 */
 110:Core/Src/main.c ****   init_LCD_pins();
 111:Core/Src/main.c ****   init_LCD();
 112:Core/Src/main.c ****   HAL_Delay(10);
 113:Core/Src/main.c **** 
 114:Core/Src/main.c ****   update_lcd();
 115:Core/Src/main.c ****   HAL_UART_Receive_IT(&huart5,&incoming_byte,1); //receive data from data buffer interrupt mode
 116:Core/Src/main.c **** 
 117:Core/Src/main.c ****   /* USER CODE END 2 */
 118:Core/Src/main.c **** 
 119:Core/Src/main.c ****   /* Infinite loop */
 120:Core/Src/main.c ****   /* USER CODE BEGIN WHILE */
 121:Core/Src/main.c ****   while (1)
 122:Core/Src/main.c ****   {
 123:Core/Src/main.c ****     HAL_Delay(1);
 124:Core/Src/main.c ****     cnt++;
 125:Core/Src/main.c ****     if(cnt%delay_ms == 0) {
 126:Core/Src/main.c ****       led_val++;
 127:Core/Src/main.c ****       last_heartbeat++;
 128:Core/Src/main.c ****       cnt = 0;
 129:Core/Src/main.c ****       update_lcd();
 130:Core/Src/main.c ****     }
 131:Core/Src/main.c ****     update_leds();
 132:Core/Src/main.c ****     /* USER CODE END WHILE */
 133:Core/Src/main.c **** 
 134:Core/Src/main.c ****     /* USER CODE BEGIN 3 */
 135:Core/Src/main.c ****   }
 136:Core/Src/main.c ****   /* USER CODE END 3 */
 137:Core/Src/main.c **** }
 138:Core/Src/main.c **** 
 139:Core/Src/main.c **** /**
 140:Core/Src/main.c ****   * @brief System Clock Configuration
 141:Core/Src/main.c ****   * @retval None
 142:Core/Src/main.c ****   */
 143:Core/Src/main.c **** void SystemClock_Config(void)
 144:Core/Src/main.c **** {
ARM GAS  C:\Users\justi\AppData\Local\Temp\ccXAmVZp.s 			page 4


 145:Core/Src/main.c ****   RCC_OscInitTypeDef RCC_OscInitStruct = {0};
 146:Core/Src/main.c ****   RCC_ClkInitTypeDef RCC_ClkInitStruct = {0};
 147:Core/Src/main.c **** 
 148:Core/Src/main.c ****   /** Configure the main internal regulator output voltage
 149:Core/Src/main.c ****   */
 150:Core/Src/main.c ****   __HAL_RCC_PWR_CLK_ENABLE();
 151:Core/Src/main.c ****   __HAL_PWR_VOLTAGESCALING_CONFIG(PWR_REGULATOR_VOLTAGE_SCALE3);
 152:Core/Src/main.c **** 
 153:Core/Src/main.c ****   /** Initializes the RCC Oscillators according to the specified parameters
 154:Core/Src/main.c ****   * in the RCC_OscInitTypeDef structure.
 155:Core/Src/main.c ****   */
 156:Core/Src/main.c ****   RCC_OscInitStruct.OscillatorType = RCC_OSCILLATORTYPE_HSE;
 157:Core/Src/main.c ****   RCC_OscInitStruct.HSEState = RCC_HSE_ON;
 158:Core/Src/main.c ****   RCC_OscInitStruct.PLL.PLLState = RCC_PLL_ON;
 159:Core/Src/main.c ****   RCC_OscInitStruct.PLL.PLLSource = RCC_PLLSOURCE_HSE;
 160:Core/Src/main.c ****   RCC_OscInitStruct.PLL.PLLM = 4;
 161:Core/Src/main.c ****   RCC_OscInitStruct.PLL.PLLN = 50;
 162:Core/Src/main.c ****   RCC_OscInitStruct.PLL.PLLP = RCC_PLLP_DIV2;
 163:Core/Src/main.c ****   RCC_OscInitStruct.PLL.PLLQ = 2;
 164:Core/Src/main.c ****   RCC_OscInitStruct.PLL.PLLR = 2;
 165:Core/Src/main.c ****   if (HAL_RCC_OscConfig(&RCC_OscInitStruct) != HAL_OK)
 166:Core/Src/main.c ****   {
 167:Core/Src/main.c ****     Error_Handler();
 168:Core/Src/main.c ****   }
 169:Core/Src/main.c **** 
 170:Core/Src/main.c ****   /** Initializes the CPU, AHB and APB buses clocks
 171:Core/Src/main.c ****   */
 172:Core/Src/main.c ****   RCC_ClkInitStruct.ClockType = RCC_CLOCKTYPE_HCLK|RCC_CLOCKTYPE_SYSCLK
 173:Core/Src/main.c ****                               |RCC_CLOCKTYPE_PCLK1|RCC_CLOCKTYPE_PCLK2;
 174:Core/Src/main.c ****   RCC_ClkInitStruct.SYSCLKSource = RCC_SYSCLKSOURCE_PLLCLK;
 175:Core/Src/main.c ****   RCC_ClkInitStruct.AHBCLKDivider = RCC_SYSCLK_DIV1;
 176:Core/Src/main.c ****   RCC_ClkInitStruct.APB1CLKDivider = RCC_HCLK_DIV2;
 177:Core/Src/main.c ****   RCC_ClkInitStruct.APB2CLKDivider = RCC_HCLK_DIV1;
 178:Core/Src/main.c **** 
 179:Core/Src/main.c ****   if (HAL_RCC_ClockConfig(&RCC_ClkInitStruct, FLASH_LATENCY_1) != HAL_OK)
 180:Core/Src/main.c ****   {
 181:Core/Src/main.c ****     Error_Handler();
 182:Core/Src/main.c ****   }
 183:Core/Src/main.c **** }
 184:Core/Src/main.c **** 
 185:Core/Src/main.c **** /* USER CODE BEGIN 4 */
 186:Core/Src/main.c **** 
 187:Core/Src/main.c **** void clear_rx_data() {
  29              		.loc 1 187 22 view -0
  30              		.cfi_startproc
  31              		@ args = 0, pretend = 0, frame = 0
  32              		@ frame_needed = 0, uses_anonymous_args = 0
  33              		@ link register save eliminated.
 188:Core/Src/main.c ****  for(uint8_t i = 0; i<DATA_LENGTH;i++) {
  34              		.loc 1 188 2 view .LVU1
  35              	.LBB4:
  36              		.loc 1 188 6 view .LVU2
  37              	.LVL0:
  38              		.loc 1 188 14 is_stmt 0 view .LVU3
  39 0000 0023     		movs	r3, #0
  40              		.loc 1 188 2 view .LVU4
  41 0002 04E0     		b	.L2
ARM GAS  C:\Users\justi\AppData\Local\Temp\ccXAmVZp.s 			page 5


  42              	.LVL1:
  43              	.L3:
 189:Core/Src/main.c ****     recvd_data[i] = 0;
  44              		.loc 1 189 5 is_stmt 1 discriminator 3 view .LVU5
  45              		.loc 1 189 19 is_stmt 0 discriminator 3 view .LVU6
  46 0004 034A     		ldr	r2, .L4
  47 0006 0021     		movs	r1, #0
  48 0008 D154     		strb	r1, [r2, r3]
 188:Core/Src/main.c ****  for(uint8_t i = 0; i<DATA_LENGTH;i++) {
  49              		.loc 1 188 36 is_stmt 1 discriminator 3 view .LVU7
  50 000a 0133     		adds	r3, r3, #1
  51              	.LVL2:
 188:Core/Src/main.c ****  for(uint8_t i = 0; i<DATA_LENGTH;i++) {
  52              		.loc 1 188 36 is_stmt 0 discriminator 3 view .LVU8
  53 000c DBB2     		uxtb	r3, r3
  54              	.LVL3:
  55              	.L2:
 188:Core/Src/main.c ****  for(uint8_t i = 0; i<DATA_LENGTH;i++) {
  56              		.loc 1 188 22 is_stmt 1 discriminator 1 view .LVU9
  57 000e 062B     		cmp	r3, #6
  58 0010 F8D9     		bls	.L3
  59              	.LBE4:
 190:Core/Src/main.c ****   }
 191:Core/Src/main.c **** }
  60              		.loc 1 191 1 is_stmt 0 view .LVU10
  61 0012 7047     		bx	lr
  62              	.L5:
  63              		.align	2
  64              	.L4:
  65 0014 00000000 		.word	recvd_data
  66              		.cfi_endproc
  67              	.LFE132:
  69              		.section	.rodata.update_lcd.str1.4,"aMS",%progbits,1
  70              		.align	2
  71              	.LC0:
  72 0000 445F4944 		.ascii	"D_ID:%d pTx:%d     \000"
  72      3A256420 
  72      7054783A 
  72      25642020 
  72      20202000 
  73              		.align	2
  74              	.LC1:
  75 0014 535F4944 		.ascii	"S_ID:%d Val:%d     \000"
  75      3A256420 
  75      56616C3A 
  75      25642020 
  75      20202000 
  76              		.section	.text.update_lcd,"ax",%progbits
  77              		.align	1
  78              		.global	update_lcd
  79              		.syntax unified
  80              		.thumb
  81              		.thumb_func
  83              	update_lcd:
  84              	.LFB133:
 192:Core/Src/main.c **** 
 193:Core/Src/main.c **** void update_lcd() {
ARM GAS  C:\Users\justi\AppData\Local\Temp\ccXAmVZp.s 			page 6


  85              		.loc 1 193 19 is_stmt 1 view -0
  86              		.cfi_startproc
  87              		@ args = 0, pretend = 0, frame = 0
  88              		@ frame_needed = 0, uses_anonymous_args = 0
  89 0000 38B5     		push	{r3, r4, r5, lr}
  90              		.cfi_def_cfa_offset 16
  91              		.cfi_offset 3, -16
  92              		.cfi_offset 4, -12
  93              		.cfi_offset 5, -8
  94              		.cfi_offset 14, -4
 194:Core/Src/main.c ****   sprintf(line_one, "D_ID:%d pTx:%d     ",last_device_id,last_heartbeat);
  95              		.loc 1 194 3 view .LVU12
  96 0002 114D     		ldr	r5, .L8
  97 0004 114B     		ldr	r3, .L8+4
  98 0006 1B88     		ldrh	r3, [r3]
  99 0008 114A     		ldr	r2, .L8+8
 100 000a 1278     		ldrb	r2, [r2]	@ zero_extendqisi2
 101 000c 1149     		ldr	r1, .L8+12
 102 000e 2846     		mov	r0, r5
 103 0010 FFF7FEFF 		bl	sprintf
 104              	.LVL4:
 195:Core/Src/main.c ****   sprintf(line_two, "S_ID:%d Val:%d     ", last_sensor, last_val);
 105              		.loc 1 195 3 view .LVU13
 106 0014 104C     		ldr	r4, .L8+16
 107 0016 114B     		ldr	r3, .L8+20
 108 0018 1B88     		ldrh	r3, [r3]
 109 001a 114A     		ldr	r2, .L8+24
 110 001c 1278     		ldrb	r2, [r2]	@ zero_extendqisi2
 111 001e 1149     		ldr	r1, .L8+28
 112 0020 2046     		mov	r0, r4
 113 0022 FFF7FEFF 		bl	sprintf
 114              	.LVL5:
 196:Core/Src/main.c ****   line_one[16] = 0;
 115              		.loc 1 196 3 view .LVU14
 116              		.loc 1 196 16 is_stmt 0 view .LVU15
 117 0026 0023     		movs	r3, #0
 118 0028 2B74     		strb	r3, [r5, #16]
 197:Core/Src/main.c ****   line_two[16] = 0;
 119              		.loc 1 197 3 is_stmt 1 view .LVU16
 120              		.loc 1 197 16 is_stmt 0 view .LVU17
 121 002a 2374     		strb	r3, [r4, #16]
 198:Core/Src/main.c ****   lcd_command(CURSOR_HOME);
 122              		.loc 1 198 3 is_stmt 1 view .LVU18
 123 002c 0220     		movs	r0, #2
 124 002e FFF7FEFF 		bl	lcd_command
 125              	.LVL6:
 199:Core/Src/main.c ****   lcd_putstring(line_one);
 126              		.loc 1 199 3 view .LVU19
 127 0032 2846     		mov	r0, r5
 128 0034 FFF7FEFF 		bl	lcd_putstring
 129              	.LVL7:
 200:Core/Src/main.c ****   lcd_command(LINE_TWO);
 130              		.loc 1 200 3 view .LVU20
 131 0038 C020     		movs	r0, #192
 132 003a FFF7FEFF 		bl	lcd_command
 133              	.LVL8:
 201:Core/Src/main.c ****   lcd_putstring(line_two);
ARM GAS  C:\Users\justi\AppData\Local\Temp\ccXAmVZp.s 			page 7


 134              		.loc 1 201 3 view .LVU21
 135 003e 2046     		mov	r0, r4
 136 0040 FFF7FEFF 		bl	lcd_putstring
 137              	.LVL9:
 202:Core/Src/main.c **** }
 138              		.loc 1 202 1 is_stmt 0 view .LVU22
 139 0044 38BD     		pop	{r3, r4, r5, pc}
 140              	.L9:
 141 0046 00BF     		.align	2
 142              	.L8:
 143 0048 00000000 		.word	line_one
 144 004c 00000000 		.word	last_heartbeat
 145 0050 00000000 		.word	last_device_id
 146 0054 00000000 		.word	.LC0
 147 0058 00000000 		.word	line_two
 148 005c 00000000 		.word	last_val
 149 0060 00000000 		.word	last_sensor
 150 0064 14000000 		.word	.LC1
 151              		.cfi_endproc
 152              	.LFE133:
 154              		.section	.text.update_leds,"ax",%progbits
 155              		.align	1
 156              		.global	update_leds
 157              		.syntax unified
 158              		.thumb
 159              		.thumb_func
 161              	update_leds:
 162              	.LFB134:
 203:Core/Src/main.c **** 
 204:Core/Src/main.c **** void update_leds() {
 163              		.loc 1 204 20 is_stmt 1 view -0
 164              		.cfi_startproc
 165              		@ args = 0, pretend = 0, frame = 0
 166              		@ frame_needed = 0, uses_anonymous_args = 0
 167              		@ link register save eliminated.
 205:Core/Src/main.c ****   GPIOB->ODR = led_val;
 168              		.loc 1 205 3 view .LVU24
 169              		.loc 1 205 14 is_stmt 0 view .LVU25
 170 0000 024B     		ldr	r3, .L11
 171 0002 1A78     		ldrb	r2, [r3]	@ zero_extendqisi2
 172 0004 024B     		ldr	r3, .L11+4
 173 0006 5A61     		str	r2, [r3, #20]
 206:Core/Src/main.c **** }
 174              		.loc 1 206 1 view .LVU26
 175 0008 7047     		bx	lr
 176              	.L12:
 177 000a 00BF     		.align	2
 178              	.L11:
 179 000c 00000000 		.word	led_val
 180 0010 00040240 		.word	1073873920
 181              		.cfi_endproc
 182              	.LFE134:
 184              		.section	.text.HAL_UART_RxCpltCallback,"ax",%progbits
 185              		.align	1
 186              		.global	HAL_UART_RxCpltCallback
 187              		.syntax unified
 188              		.thumb
ARM GAS  C:\Users\justi\AppData\Local\Temp\ccXAmVZp.s 			page 8


 189              		.thumb_func
 191              	HAL_UART_RxCpltCallback:
 192              	.LVL10:
 193              	.LFB135:
 207:Core/Src/main.c **** 
 208:Core/Src/main.c **** //UART 5 receive complete callback
 209:Core/Src/main.c **** void HAL_UART_RxCpltCallback(UART_HandleTypeDef *huart)
 210:Core/Src/main.c **** {
 194              		.loc 1 210 1 is_stmt 1 view -0
 195              		.cfi_startproc
 196              		@ args = 0, pretend = 0, frame = 0
 197              		@ frame_needed = 0, uses_anonymous_args = 0
 198              		.loc 1 210 1 is_stmt 0 view .LVU28
 199 0000 10B5     		push	{r4, lr}
 200              		.cfi_def_cfa_offset 8
 201              		.cfi_offset 4, -8
 202              		.cfi_offset 14, -4
 211:Core/Src/main.c ****   for(int8_t i = DATA_LENGTH-1; i>=1 ;i--) {
 203              		.loc 1 211 3 is_stmt 1 view .LVU29
 204              	.LBB5:
 205              		.loc 1 211 7 view .LVU30
 206              	.LVL11:
 207              		.loc 1 211 14 is_stmt 0 view .LVU31
 208 0002 0623     		movs	r3, #6
 209              		.loc 1 211 3 view .LVU32
 210 0004 06E0     		b	.L14
 211              	.LVL12:
 212              	.L15:
 212:Core/Src/main.c ****     recvd_data[i] = recvd_data[i-1];
 213              		.loc 1 212 5 is_stmt 1 discriminator 3 view .LVU33
 214              		.loc 1 212 33 is_stmt 0 discriminator 3 view .LVU34
 215 0006 5A1E     		subs	r2, r3, #1
 216              		.loc 1 212 31 discriminator 3 view .LVU35
 217 0008 2A49     		ldr	r1, .L19
 218 000a 8A5C     		ldrb	r2, [r1, r2]	@ zero_extendqisi2
 219 000c D2B2     		uxtb	r2, r2
 220              		.loc 1 212 19 discriminator 3 view .LVU36
 221 000e CA54     		strb	r2, [r1, r3]
 211:Core/Src/main.c ****   for(int8_t i = DATA_LENGTH-1; i>=1 ;i--) {
 222              		.loc 1 211 40 is_stmt 1 discriminator 3 view .LVU37
 223 0010 013B     		subs	r3, r3, #1
 224              	.LVL13:
 211:Core/Src/main.c ****   for(int8_t i = DATA_LENGTH-1; i>=1 ;i--) {
 225              		.loc 1 211 40 is_stmt 0 discriminator 3 view .LVU38
 226 0012 5BB2     		sxtb	r3, r3
 227              	.LVL14:
 228              	.L14:
 211:Core/Src/main.c ****   for(int8_t i = DATA_LENGTH-1; i>=1 ;i--) {
 229              		.loc 1 211 34 is_stmt 1 discriminator 1 view .LVU39
 230 0014 002B     		cmp	r3, #0
 231 0016 F6DC     		bgt	.L15
 232              	.LBE5:
 213:Core/Src/main.c ****   }
 214:Core/Src/main.c ****   recvd_data[0] = incoming_byte;
 233              		.loc 1 214 3 view .LVU40
 234              		.loc 1 214 17 is_stmt 0 view .LVU41
 235 0018 274B     		ldr	r3, .L19+4
ARM GAS  C:\Users\justi\AppData\Local\Temp\ccXAmVZp.s 			page 9


 236              	.LVL15:
 237              		.loc 1 214 17 view .LVU42
 238 001a 1B78     		ldrb	r3, [r3]	@ zero_extendqisi2
 239 001c 254C     		ldr	r4, .L19
 240 001e 2370     		strb	r3, [r4]
 215:Core/Src/main.c **** 	HAL_GPIO_TogglePin(LED7_GPIO_Port,LED7_Pin);
 241              		.loc 1 215 2 is_stmt 1 view .LVU43
 242 0020 8021     		movs	r1, #128
 243 0022 2648     		ldr	r0, .L19+8
 244              	.LVL16:
 245              		.loc 1 215 2 is_stmt 0 view .LVU44
 246 0024 FFF7FEFF 		bl	HAL_GPIO_TogglePin
 247              	.LVL17:
 216:Core/Src/main.c ****   if(recvd_data[DATA_LENGTH-1]==RX_START && recvd_data[0] == RX_END) {
 248              		.loc 1 216 3 is_stmt 1 view .LVU45
 249              		.loc 1 216 16 is_stmt 0 view .LVU46
 250 0028 A379     		ldrb	r3, [r4, #6]	@ zero_extendqisi2
 251 002a DBB2     		uxtb	r3, r3
 252              		.loc 1 216 5 view .LVU47
 253 002c 542B     		cmp	r3, #84
 254 002e 05D0     		beq	.L18
 255              	.L16:
 217:Core/Src/main.c ****     if(recvd_data[1] = (recvd_data[5]+recvd_data[4]+recvd_data[3]+recvd_data[2])) {
 218:Core/Src/main.c ****       last_device_id = recvd_data[5];
 219:Core/Src/main.c ****       last_sensor = recvd_data[4];
 220:Core/Src/main.c ****       last_val = ((recvd_data[3]*256) + recvd_data[2]);
 221:Core/Src/main.c ****       last_heartbeat = 0;
 222:Core/Src/main.c **** 
 223:Core/Src/main.c ****       
 224:Core/Src/main.c ****       output_buff[1] = (uint8_t)last_val;
 225:Core/Src/main.c ****       output_buff[2] = last_val>>8;
 226:Core/Src/main.c ****       output_buff[3] = last_sensor;
 227:Core/Src/main.c ****       output_buff[4] = last_device_id;
 228:Core/Src/main.c ****       output_buff[0] = output_buff[4]+output_buff[3]+output_buff[2]+output_buff[1];
 229:Core/Src/main.c ****       HAL_UART_Transmit(&huart1,output_buff,5,100);
 230:Core/Src/main.c ****       clear_rx_data();
 231:Core/Src/main.c ****       led_val = 0;
 232:Core/Src/main.c ****     }
 233:Core/Src/main.c ****   }
 234:Core/Src/main.c **** 	HAL_UART_Receive_IT(&huart5,&incoming_byte,1); //start next data receive interrupt
 256              		.loc 1 234 2 is_stmt 1 view .LVU48
 257 0030 0122     		movs	r2, #1
 258 0032 2149     		ldr	r1, .L19+4
 259 0034 2248     		ldr	r0, .L19+12
 260 0036 FFF7FEFF 		bl	HAL_UART_Receive_IT
 261              	.LVL18:
 235:Core/Src/main.c **** }
 262              		.loc 1 235 1 is_stmt 0 view .LVU49
 263 003a 10BD     		pop	{r4, pc}
 264              	.L18:
 216:Core/Src/main.c ****   if(recvd_data[DATA_LENGTH-1]==RX_START && recvd_data[0] == RX_END) {
 265              		.loc 1 216 55 discriminator 1 view .LVU50
 266 003c 2378     		ldrb	r3, [r4]	@ zero_extendqisi2
 267 003e DBB2     		uxtb	r3, r3
 216:Core/Src/main.c ****   if(recvd_data[DATA_LENGTH-1]==RX_START && recvd_data[0] == RX_END) {
 268              		.loc 1 216 42 discriminator 1 view .LVU51
 269 0040 702B     		cmp	r3, #112
ARM GAS  C:\Users\justi\AppData\Local\Temp\ccXAmVZp.s 			page 10


 270 0042 F5D1     		bne	.L16
 217:Core/Src/main.c ****     if(recvd_data[1] = (recvd_data[5]+recvd_data[4]+recvd_data[3]+recvd_data[2])) {
 271              		.loc 1 217 5 is_stmt 1 view .LVU52
 217:Core/Src/main.c ****     if(recvd_data[1] = (recvd_data[5]+recvd_data[4]+recvd_data[3]+recvd_data[2])) {
 272              		.loc 1 217 35 is_stmt 0 view .LVU53
 273 0044 6179     		ldrb	r1, [r4, #5]	@ zero_extendqisi2
 217:Core/Src/main.c ****     if(recvd_data[1] = (recvd_data[5]+recvd_data[4]+recvd_data[3]+recvd_data[2])) {
 274              		.loc 1 217 49 view .LVU54
 275 0046 2379     		ldrb	r3, [r4, #4]	@ zero_extendqisi2
 217:Core/Src/main.c ****     if(recvd_data[1] = (recvd_data[5]+recvd_data[4]+recvd_data[3]+recvd_data[2])) {
 276              		.loc 1 217 38 view .LVU55
 277 0048 0B44     		add	r3, r3, r1
 217:Core/Src/main.c ****     if(recvd_data[1] = (recvd_data[5]+recvd_data[4]+recvd_data[3]+recvd_data[2])) {
 278              		.loc 1 217 63 view .LVU56
 279 004a E178     		ldrb	r1, [r4, #3]	@ zero_extendqisi2
 217:Core/Src/main.c ****     if(recvd_data[1] = (recvd_data[5]+recvd_data[4]+recvd_data[3]+recvd_data[2])) {
 280              		.loc 1 217 52 view .LVU57
 281 004c 51FA83F3 		uxtab	r3, r1, r3
 217:Core/Src/main.c ****     if(recvd_data[1] = (recvd_data[5]+recvd_data[4]+recvd_data[3]+recvd_data[2])) {
 282              		.loc 1 217 77 view .LVU58
 283 0050 A178     		ldrb	r1, [r4, #2]	@ zero_extendqisi2
 217:Core/Src/main.c ****     if(recvd_data[1] = (recvd_data[5]+recvd_data[4]+recvd_data[3]+recvd_data[2])) {
 284              		.loc 1 217 66 view .LVU59
 285 0052 51FA83F3 		uxtab	r3, r1, r3
 286 0056 DBB2     		uxtb	r3, r3
 217:Core/Src/main.c ****     if(recvd_data[1] = (recvd_data[5]+recvd_data[4]+recvd_data[3]+recvd_data[2])) {
 287              		.loc 1 217 22 view .LVU60
 288 0058 6370     		strb	r3, [r4, #1]
 217:Core/Src/main.c ****     if(recvd_data[1] = (recvd_data[5]+recvd_data[4]+recvd_data[3]+recvd_data[2])) {
 289              		.loc 1 217 7 view .LVU61
 290 005a 002B     		cmp	r3, #0
 291 005c E8D0     		beq	.L16
 218:Core/Src/main.c ****       last_sensor = recvd_data[4];
 292              		.loc 1 218 7 is_stmt 1 view .LVU62
 218:Core/Src/main.c ****       last_sensor = recvd_data[4];
 293              		.loc 1 218 34 is_stmt 0 view .LVU63
 294 005e 6379     		ldrb	r3, [r4, #5]	@ zero_extendqisi2
 295 0060 DBB2     		uxtb	r3, r3
 218:Core/Src/main.c ****       last_sensor = recvd_data[4];
 296              		.loc 1 218 22 view .LVU64
 297 0062 1849     		ldr	r1, .L19+16
 298 0064 0B70     		strb	r3, [r1]
 219:Core/Src/main.c ****       last_val = ((recvd_data[3]*256) + recvd_data[2]);
 299              		.loc 1 219 7 is_stmt 1 view .LVU65
 219:Core/Src/main.c ****       last_val = ((recvd_data[3]*256) + recvd_data[2]);
 300              		.loc 1 219 31 is_stmt 0 view .LVU66
 301 0066 2079     		ldrb	r0, [r4, #4]	@ zero_extendqisi2
 302 0068 C0B2     		uxtb	r0, r0
 219:Core/Src/main.c ****       last_val = ((recvd_data[3]*256) + recvd_data[2]);
 303              		.loc 1 219 19 view .LVU67
 304 006a 1749     		ldr	r1, .L19+20
 305 006c 0870     		strb	r0, [r1]
 220:Core/Src/main.c ****       last_heartbeat = 0;
 306              		.loc 1 220 7 is_stmt 1 view .LVU68
 220:Core/Src/main.c ****       last_heartbeat = 0;
 307              		.loc 1 220 30 is_stmt 0 view .LVU69
 308 006e E178     		ldrb	r1, [r4, #3]	@ zero_extendqisi2
ARM GAS  C:\Users\justi\AppData\Local\Temp\ccXAmVZp.s 			page 11


 220:Core/Src/main.c ****       last_heartbeat = 0;
 309              		.loc 1 220 51 view .LVU70
 310 0070 A278     		ldrb	r2, [r4, #2]	@ zero_extendqisi2
 220:Core/Src/main.c ****       last_heartbeat = 0;
 311              		.loc 1 220 39 view .LVU71
 312 0072 02EB0122 		add	r2, r2, r1, lsl #8
 313 0076 92B2     		uxth	r2, r2
 220:Core/Src/main.c ****       last_heartbeat = 0;
 314              		.loc 1 220 16 view .LVU72
 315 0078 1449     		ldr	r1, .L19+24
 316 007a 0A80     		strh	r2, [r1]	@ movhi
 221:Core/Src/main.c **** 
 317              		.loc 1 221 7 is_stmt 1 view .LVU73
 221:Core/Src/main.c **** 
 318              		.loc 1 221 22 is_stmt 0 view .LVU74
 319 007c 0024     		movs	r4, #0
 320 007e 1449     		ldr	r1, .L19+28
 321 0080 0C80     		strh	r4, [r1]	@ movhi
 224:Core/Src/main.c ****       output_buff[2] = last_val>>8;
 322              		.loc 1 224 7 is_stmt 1 view .LVU75
 224:Core/Src/main.c ****       output_buff[2] = last_val>>8;
 323              		.loc 1 224 24 is_stmt 0 view .LVU76
 324 0082 5FFA82FC 		uxtb	ip, r2
 224:Core/Src/main.c ****       output_buff[2] = last_val>>8;
 325              		.loc 1 224 22 view .LVU77
 326 0086 1349     		ldr	r1, .L19+32
 327 0088 81F801C0 		strb	ip, [r1, #1]
 225:Core/Src/main.c ****       output_buff[3] = last_sensor;
 328              		.loc 1 225 7 is_stmt 1 view .LVU78
 225:Core/Src/main.c ****       output_buff[3] = last_sensor;
 329              		.loc 1 225 22 is_stmt 0 view .LVU79
 330 008c 120A     		lsrs	r2, r2, #8
 331 008e 8A70     		strb	r2, [r1, #2]
 226:Core/Src/main.c ****       output_buff[4] = last_device_id;
 332              		.loc 1 226 7 is_stmt 1 view .LVU80
 226:Core/Src/main.c ****       output_buff[4] = last_device_id;
 333              		.loc 1 226 22 is_stmt 0 view .LVU81
 334 0090 C870     		strb	r0, [r1, #3]
 227:Core/Src/main.c ****       output_buff[0] = output_buff[4]+output_buff[3]+output_buff[2]+output_buff[1];
 335              		.loc 1 227 7 is_stmt 1 view .LVU82
 227:Core/Src/main.c ****       output_buff[0] = output_buff[4]+output_buff[3]+output_buff[2]+output_buff[1];
 336              		.loc 1 227 22 is_stmt 0 view .LVU83
 337 0092 0B71     		strb	r3, [r1, #4]
 228:Core/Src/main.c ****       HAL_UART_Transmit(&huart1,output_buff,5,100);
 338              		.loc 1 228 7 is_stmt 1 view .LVU84
 228:Core/Src/main.c ****       HAL_UART_Transmit(&huart1,output_buff,5,100);
 339              		.loc 1 228 38 is_stmt 0 view .LVU85
 340 0094 0344     		add	r3, r3, r0
 228:Core/Src/main.c ****       HAL_UART_Transmit(&huart1,output_buff,5,100);
 341              		.loc 1 228 53 view .LVU86
 342 0096 52FA83F3 		uxtab	r3, r2, r3
 228:Core/Src/main.c ****       HAL_UART_Transmit(&huart1,output_buff,5,100);
 343              		.loc 1 228 68 view .LVU87
 344 009a 5CFA83F3 		uxtab	r3, ip, r3
 228:Core/Src/main.c ****       HAL_UART_Transmit(&huart1,output_buff,5,100);
 345              		.loc 1 228 22 view .LVU88
 346 009e 0B70     		strb	r3, [r1]
ARM GAS  C:\Users\justi\AppData\Local\Temp\ccXAmVZp.s 			page 12


 229:Core/Src/main.c ****       clear_rx_data();
 347              		.loc 1 229 7 is_stmt 1 view .LVU89
 348 00a0 6423     		movs	r3, #100
 349 00a2 0522     		movs	r2, #5
 350 00a4 0C48     		ldr	r0, .L19+36
 351 00a6 FFF7FEFF 		bl	HAL_UART_Transmit
 352              	.LVL19:
 230:Core/Src/main.c ****       led_val = 0;
 353              		.loc 1 230 7 view .LVU90
 354 00aa FFF7FEFF 		bl	clear_rx_data
 355              	.LVL20:
 231:Core/Src/main.c ****     }
 356              		.loc 1 231 7 view .LVU91
 231:Core/Src/main.c ****     }
 357              		.loc 1 231 15 is_stmt 0 view .LVU92
 358 00ae 0B4B     		ldr	r3, .L19+40
 359 00b0 1C70     		strb	r4, [r3]
 360 00b2 BDE7     		b	.L16
 361              	.L20:
 362              		.align	2
 363              	.L19:
 364 00b4 00000000 		.word	recvd_data
 365 00b8 00000000 		.word	incoming_byte
 366 00bc 00040240 		.word	1073873920
 367 00c0 00000000 		.word	huart5
 368 00c4 00000000 		.word	last_device_id
 369 00c8 00000000 		.word	last_sensor
 370 00cc 00000000 		.word	last_val
 371 00d0 00000000 		.word	last_heartbeat
 372 00d4 00000000 		.word	output_buff
 373 00d8 00000000 		.word	huart1
 374 00dc 00000000 		.word	led_val
 375              		.cfi_endproc
 376              	.LFE135:
 378              		.section	.text.Error_Handler,"ax",%progbits
 379              		.align	1
 380              		.global	Error_Handler
 381              		.syntax unified
 382              		.thumb
 383              		.thumb_func
 385              	Error_Handler:
 386              	.LFB136:
 236:Core/Src/main.c **** /* USER CODE END 4 */
 237:Core/Src/main.c **** 
 238:Core/Src/main.c **** /**
 239:Core/Src/main.c ****   * @brief  This function is executed in case of error occurrence.
 240:Core/Src/main.c ****   * @retval None
 241:Core/Src/main.c ****   */
 242:Core/Src/main.c **** void Error_Handler(void)
 243:Core/Src/main.c **** {
 387              		.loc 1 243 1 is_stmt 1 view -0
 388              		.cfi_startproc
 389              		@ Volatile: function does not return.
 390              		@ args = 0, pretend = 0, frame = 0
 391              		@ frame_needed = 0, uses_anonymous_args = 0
 392              		@ link register save eliminated.
 244:Core/Src/main.c ****   /* USER CODE BEGIN Error_Handler_Debug */
ARM GAS  C:\Users\justi\AppData\Local\Temp\ccXAmVZp.s 			page 13


 245:Core/Src/main.c ****   /* User can add his own implementation to report the HAL error return state */
 246:Core/Src/main.c ****   __disable_irq();
 393              		.loc 1 246 3 view .LVU94
 394              	.LBB6:
 395              	.LBI6:
 396              		.file 2 "Drivers/CMSIS/Include/cmsis_gcc.h"
   1:Drivers/CMSIS/Include/cmsis_gcc.h **** /**************************************************************************//**
   2:Drivers/CMSIS/Include/cmsis_gcc.h ****  * @file     cmsis_gcc.h
   3:Drivers/CMSIS/Include/cmsis_gcc.h ****  * @brief    CMSIS compiler GCC header file
   4:Drivers/CMSIS/Include/cmsis_gcc.h ****  * @version  V5.0.4
   5:Drivers/CMSIS/Include/cmsis_gcc.h ****  * @date     09. April 2018
   6:Drivers/CMSIS/Include/cmsis_gcc.h ****  ******************************************************************************/
   7:Drivers/CMSIS/Include/cmsis_gcc.h **** /*
   8:Drivers/CMSIS/Include/cmsis_gcc.h ****  * Copyright (c) 2009-2018 Arm Limited. All rights reserved.
   9:Drivers/CMSIS/Include/cmsis_gcc.h ****  *
  10:Drivers/CMSIS/Include/cmsis_gcc.h ****  * SPDX-License-Identifier: Apache-2.0
  11:Drivers/CMSIS/Include/cmsis_gcc.h ****  *
  12:Drivers/CMSIS/Include/cmsis_gcc.h ****  * Licensed under the Apache License, Version 2.0 (the License); you may
  13:Drivers/CMSIS/Include/cmsis_gcc.h ****  * not use this file except in compliance with the License.
  14:Drivers/CMSIS/Include/cmsis_gcc.h ****  * You may obtain a copy of the License at
  15:Drivers/CMSIS/Include/cmsis_gcc.h ****  *
  16:Drivers/CMSIS/Include/cmsis_gcc.h ****  * www.apache.org/licenses/LICENSE-2.0
  17:Drivers/CMSIS/Include/cmsis_gcc.h ****  *
  18:Drivers/CMSIS/Include/cmsis_gcc.h ****  * Unless required by applicable law or agreed to in writing, software
  19:Drivers/CMSIS/Include/cmsis_gcc.h ****  * distributed under the License is distributed on an AS IS BASIS, WITHOUT
  20:Drivers/CMSIS/Include/cmsis_gcc.h ****  * WARRANTIES OR CONDITIONS OF ANY KIND, either express or implied.
  21:Drivers/CMSIS/Include/cmsis_gcc.h ****  * See the License for the specific language governing permissions and
  22:Drivers/CMSIS/Include/cmsis_gcc.h ****  * limitations under the License.
  23:Drivers/CMSIS/Include/cmsis_gcc.h ****  */
  24:Drivers/CMSIS/Include/cmsis_gcc.h **** 
  25:Drivers/CMSIS/Include/cmsis_gcc.h **** #ifndef __CMSIS_GCC_H
  26:Drivers/CMSIS/Include/cmsis_gcc.h **** #define __CMSIS_GCC_H
  27:Drivers/CMSIS/Include/cmsis_gcc.h **** 
  28:Drivers/CMSIS/Include/cmsis_gcc.h **** /* ignore some GCC warnings */
  29:Drivers/CMSIS/Include/cmsis_gcc.h **** #pragma GCC diagnostic push
  30:Drivers/CMSIS/Include/cmsis_gcc.h **** #pragma GCC diagnostic ignored "-Wsign-conversion"
  31:Drivers/CMSIS/Include/cmsis_gcc.h **** #pragma GCC diagnostic ignored "-Wconversion"
  32:Drivers/CMSIS/Include/cmsis_gcc.h **** #pragma GCC diagnostic ignored "-Wunused-parameter"
  33:Drivers/CMSIS/Include/cmsis_gcc.h **** 
  34:Drivers/CMSIS/Include/cmsis_gcc.h **** /* Fallback for __has_builtin */
  35:Drivers/CMSIS/Include/cmsis_gcc.h **** #ifndef __has_builtin
  36:Drivers/CMSIS/Include/cmsis_gcc.h ****   #define __has_builtin(x) (0)
  37:Drivers/CMSIS/Include/cmsis_gcc.h **** #endif
  38:Drivers/CMSIS/Include/cmsis_gcc.h **** 
  39:Drivers/CMSIS/Include/cmsis_gcc.h **** /* CMSIS compiler specific defines */
  40:Drivers/CMSIS/Include/cmsis_gcc.h **** #ifndef   __ASM
  41:Drivers/CMSIS/Include/cmsis_gcc.h ****   #define __ASM                                  __asm
  42:Drivers/CMSIS/Include/cmsis_gcc.h **** #endif
  43:Drivers/CMSIS/Include/cmsis_gcc.h **** #ifndef   __INLINE
  44:Drivers/CMSIS/Include/cmsis_gcc.h ****   #define __INLINE                               inline
  45:Drivers/CMSIS/Include/cmsis_gcc.h **** #endif
  46:Drivers/CMSIS/Include/cmsis_gcc.h **** #ifndef   __STATIC_INLINE
  47:Drivers/CMSIS/Include/cmsis_gcc.h ****   #define __STATIC_INLINE                        static inline
  48:Drivers/CMSIS/Include/cmsis_gcc.h **** #endif
  49:Drivers/CMSIS/Include/cmsis_gcc.h **** #ifndef   __STATIC_FORCEINLINE                 
  50:Drivers/CMSIS/Include/cmsis_gcc.h ****   #define __STATIC_FORCEINLINE                   __attribute__((always_inline)) static inline
  51:Drivers/CMSIS/Include/cmsis_gcc.h **** #endif                                           
ARM GAS  C:\Users\justi\AppData\Local\Temp\ccXAmVZp.s 			page 14


  52:Drivers/CMSIS/Include/cmsis_gcc.h **** #ifndef   __NO_RETURN
  53:Drivers/CMSIS/Include/cmsis_gcc.h ****   #define __NO_RETURN                            __attribute__((__noreturn__))
  54:Drivers/CMSIS/Include/cmsis_gcc.h **** #endif
  55:Drivers/CMSIS/Include/cmsis_gcc.h **** #ifndef   __USED
  56:Drivers/CMSIS/Include/cmsis_gcc.h ****   #define __USED                                 __attribute__((used))
  57:Drivers/CMSIS/Include/cmsis_gcc.h **** #endif
  58:Drivers/CMSIS/Include/cmsis_gcc.h **** #ifndef   __WEAK
  59:Drivers/CMSIS/Include/cmsis_gcc.h ****   #define __WEAK                                 __attribute__((weak))
  60:Drivers/CMSIS/Include/cmsis_gcc.h **** #endif
  61:Drivers/CMSIS/Include/cmsis_gcc.h **** #ifndef   __PACKED
  62:Drivers/CMSIS/Include/cmsis_gcc.h ****   #define __PACKED                               __attribute__((packed, aligned(1)))
  63:Drivers/CMSIS/Include/cmsis_gcc.h **** #endif
  64:Drivers/CMSIS/Include/cmsis_gcc.h **** #ifndef   __PACKED_STRUCT
  65:Drivers/CMSIS/Include/cmsis_gcc.h ****   #define __PACKED_STRUCT                        struct __attribute__((packed, aligned(1)))
  66:Drivers/CMSIS/Include/cmsis_gcc.h **** #endif
  67:Drivers/CMSIS/Include/cmsis_gcc.h **** #ifndef   __PACKED_UNION
  68:Drivers/CMSIS/Include/cmsis_gcc.h ****   #define __PACKED_UNION                         union __attribute__((packed, aligned(1)))
  69:Drivers/CMSIS/Include/cmsis_gcc.h **** #endif
  70:Drivers/CMSIS/Include/cmsis_gcc.h **** #ifndef   __UNALIGNED_UINT32        /* deprecated */
  71:Drivers/CMSIS/Include/cmsis_gcc.h ****   #pragma GCC diagnostic push
  72:Drivers/CMSIS/Include/cmsis_gcc.h ****   #pragma GCC diagnostic ignored "-Wpacked"
  73:Drivers/CMSIS/Include/cmsis_gcc.h ****   #pragma GCC diagnostic ignored "-Wattributes"
  74:Drivers/CMSIS/Include/cmsis_gcc.h ****   struct __attribute__((packed)) T_UINT32 { uint32_t v; };
  75:Drivers/CMSIS/Include/cmsis_gcc.h ****   #pragma GCC diagnostic pop
  76:Drivers/CMSIS/Include/cmsis_gcc.h ****   #define __UNALIGNED_UINT32(x)                  (((struct T_UINT32 *)(x))->v)
  77:Drivers/CMSIS/Include/cmsis_gcc.h **** #endif
  78:Drivers/CMSIS/Include/cmsis_gcc.h **** #ifndef   __UNALIGNED_UINT16_WRITE
  79:Drivers/CMSIS/Include/cmsis_gcc.h ****   #pragma GCC diagnostic push
  80:Drivers/CMSIS/Include/cmsis_gcc.h ****   #pragma GCC diagnostic ignored "-Wpacked"
  81:Drivers/CMSIS/Include/cmsis_gcc.h ****   #pragma GCC diagnostic ignored "-Wattributes"
  82:Drivers/CMSIS/Include/cmsis_gcc.h ****   __PACKED_STRUCT T_UINT16_WRITE { uint16_t v; };
  83:Drivers/CMSIS/Include/cmsis_gcc.h ****   #pragma GCC diagnostic pop
  84:Drivers/CMSIS/Include/cmsis_gcc.h ****   #define __UNALIGNED_UINT16_WRITE(addr, val)    (void)((((struct T_UINT16_WRITE *)(void *)(addr))-
  85:Drivers/CMSIS/Include/cmsis_gcc.h **** #endif
  86:Drivers/CMSIS/Include/cmsis_gcc.h **** #ifndef   __UNALIGNED_UINT16_READ
  87:Drivers/CMSIS/Include/cmsis_gcc.h ****   #pragma GCC diagnostic push
  88:Drivers/CMSIS/Include/cmsis_gcc.h ****   #pragma GCC diagnostic ignored "-Wpacked"
  89:Drivers/CMSIS/Include/cmsis_gcc.h ****   #pragma GCC diagnostic ignored "-Wattributes"
  90:Drivers/CMSIS/Include/cmsis_gcc.h ****   __PACKED_STRUCT T_UINT16_READ { uint16_t v; };
  91:Drivers/CMSIS/Include/cmsis_gcc.h ****   #pragma GCC diagnostic pop
  92:Drivers/CMSIS/Include/cmsis_gcc.h ****   #define __UNALIGNED_UINT16_READ(addr)          (((const struct T_UINT16_READ *)(const void *)(add
  93:Drivers/CMSIS/Include/cmsis_gcc.h **** #endif
  94:Drivers/CMSIS/Include/cmsis_gcc.h **** #ifndef   __UNALIGNED_UINT32_WRITE
  95:Drivers/CMSIS/Include/cmsis_gcc.h ****   #pragma GCC diagnostic push
  96:Drivers/CMSIS/Include/cmsis_gcc.h ****   #pragma GCC diagnostic ignored "-Wpacked"
  97:Drivers/CMSIS/Include/cmsis_gcc.h ****   #pragma GCC diagnostic ignored "-Wattributes"
  98:Drivers/CMSIS/Include/cmsis_gcc.h ****   __PACKED_STRUCT T_UINT32_WRITE { uint32_t v; };
  99:Drivers/CMSIS/Include/cmsis_gcc.h ****   #pragma GCC diagnostic pop
 100:Drivers/CMSIS/Include/cmsis_gcc.h ****   #define __UNALIGNED_UINT32_WRITE(addr, val)    (void)((((struct T_UINT32_WRITE *)(void *)(addr))-
 101:Drivers/CMSIS/Include/cmsis_gcc.h **** #endif
 102:Drivers/CMSIS/Include/cmsis_gcc.h **** #ifndef   __UNALIGNED_UINT32_READ
 103:Drivers/CMSIS/Include/cmsis_gcc.h ****   #pragma GCC diagnostic push
 104:Drivers/CMSIS/Include/cmsis_gcc.h ****   #pragma GCC diagnostic ignored "-Wpacked"
 105:Drivers/CMSIS/Include/cmsis_gcc.h ****   #pragma GCC diagnostic ignored "-Wattributes"
 106:Drivers/CMSIS/Include/cmsis_gcc.h ****   __PACKED_STRUCT T_UINT32_READ { uint32_t v; };
 107:Drivers/CMSIS/Include/cmsis_gcc.h ****   #pragma GCC diagnostic pop
 108:Drivers/CMSIS/Include/cmsis_gcc.h ****   #define __UNALIGNED_UINT32_READ(addr)          (((const struct T_UINT32_READ *)(const void *)(add
ARM GAS  C:\Users\justi\AppData\Local\Temp\ccXAmVZp.s 			page 15


 109:Drivers/CMSIS/Include/cmsis_gcc.h **** #endif
 110:Drivers/CMSIS/Include/cmsis_gcc.h **** #ifndef   __ALIGNED
 111:Drivers/CMSIS/Include/cmsis_gcc.h ****   #define __ALIGNED(x)                           __attribute__((aligned(x)))
 112:Drivers/CMSIS/Include/cmsis_gcc.h **** #endif
 113:Drivers/CMSIS/Include/cmsis_gcc.h **** #ifndef   __RESTRICT
 114:Drivers/CMSIS/Include/cmsis_gcc.h ****   #define __RESTRICT                             __restrict
 115:Drivers/CMSIS/Include/cmsis_gcc.h **** #endif
 116:Drivers/CMSIS/Include/cmsis_gcc.h **** 
 117:Drivers/CMSIS/Include/cmsis_gcc.h **** 
 118:Drivers/CMSIS/Include/cmsis_gcc.h **** /* ###########################  Core Function Access  ########################### */
 119:Drivers/CMSIS/Include/cmsis_gcc.h **** /** \ingroup  CMSIS_Core_FunctionInterface
 120:Drivers/CMSIS/Include/cmsis_gcc.h ****     \defgroup CMSIS_Core_RegAccFunctions CMSIS Core Register Access Functions
 121:Drivers/CMSIS/Include/cmsis_gcc.h ****   @{
 122:Drivers/CMSIS/Include/cmsis_gcc.h ****  */
 123:Drivers/CMSIS/Include/cmsis_gcc.h **** 
 124:Drivers/CMSIS/Include/cmsis_gcc.h **** /**
 125:Drivers/CMSIS/Include/cmsis_gcc.h ****   \brief   Enable IRQ Interrupts
 126:Drivers/CMSIS/Include/cmsis_gcc.h ****   \details Enables IRQ interrupts by clearing the I-bit in the CPSR.
 127:Drivers/CMSIS/Include/cmsis_gcc.h ****            Can only be executed in Privileged modes.
 128:Drivers/CMSIS/Include/cmsis_gcc.h ****  */
 129:Drivers/CMSIS/Include/cmsis_gcc.h **** __STATIC_FORCEINLINE void __enable_irq(void)
 130:Drivers/CMSIS/Include/cmsis_gcc.h **** {
 131:Drivers/CMSIS/Include/cmsis_gcc.h ****   __ASM volatile ("cpsie i" : : : "memory");
 132:Drivers/CMSIS/Include/cmsis_gcc.h **** }
 133:Drivers/CMSIS/Include/cmsis_gcc.h **** 
 134:Drivers/CMSIS/Include/cmsis_gcc.h **** 
 135:Drivers/CMSIS/Include/cmsis_gcc.h **** /**
 136:Drivers/CMSIS/Include/cmsis_gcc.h ****   \brief   Disable IRQ Interrupts
 137:Drivers/CMSIS/Include/cmsis_gcc.h ****   \details Disables IRQ interrupts by setting the I-bit in the CPSR.
 138:Drivers/CMSIS/Include/cmsis_gcc.h ****            Can only be executed in Privileged modes.
 139:Drivers/CMSIS/Include/cmsis_gcc.h ****  */
 140:Drivers/CMSIS/Include/cmsis_gcc.h **** __STATIC_FORCEINLINE void __disable_irq(void)
 397              		.loc 2 140 27 view .LVU95
 398              	.LBB7:
 141:Drivers/CMSIS/Include/cmsis_gcc.h **** {
 142:Drivers/CMSIS/Include/cmsis_gcc.h ****   __ASM volatile ("cpsid i" : : : "memory");
 399              		.loc 2 142 3 view .LVU96
 400              		.syntax unified
 401              	@ 142 "Drivers/CMSIS/Include/cmsis_gcc.h" 1
 402 0000 72B6     		cpsid i
 403              	@ 0 "" 2
 404              		.thumb
 405              		.syntax unified
 406              	.L22:
 407              	.LBE7:
 408              	.LBE6:
 247:Core/Src/main.c ****   while (1)
 409              		.loc 1 247 3 discriminator 1 view .LVU97
 248:Core/Src/main.c ****   {
 249:Core/Src/main.c ****   }
 410              		.loc 1 249 3 discriminator 1 view .LVU98
 247:Core/Src/main.c ****   while (1)
 411              		.loc 1 247 9 discriminator 1 view .LVU99
 412 0002 FEE7     		b	.L22
 413              		.cfi_endproc
 414              	.LFE136:
 416              		.section	.text.SystemClock_Config,"ax",%progbits
ARM GAS  C:\Users\justi\AppData\Local\Temp\ccXAmVZp.s 			page 16


 417              		.align	1
 418              		.global	SystemClock_Config
 419              		.syntax unified
 420              		.thumb
 421              		.thumb_func
 423              	SystemClock_Config:
 424              	.LFB131:
 144:Core/Src/main.c ****   RCC_OscInitTypeDef RCC_OscInitStruct = {0};
 425              		.loc 1 144 1 view -0
 426              		.cfi_startproc
 427              		@ args = 0, pretend = 0, frame = 80
 428              		@ frame_needed = 0, uses_anonymous_args = 0
 429 0000 00B5     		push	{lr}
 430              		.cfi_def_cfa_offset 4
 431              		.cfi_offset 14, -4
 432 0002 95B0     		sub	sp, sp, #84
 433              		.cfi_def_cfa_offset 88
 145:Core/Src/main.c ****   RCC_ClkInitTypeDef RCC_ClkInitStruct = {0};
 434              		.loc 1 145 3 view .LVU101
 145:Core/Src/main.c ****   RCC_ClkInitTypeDef RCC_ClkInitStruct = {0};
 435              		.loc 1 145 22 is_stmt 0 view .LVU102
 436 0004 3422     		movs	r2, #52
 437 0006 0021     		movs	r1, #0
 438 0008 07A8     		add	r0, sp, #28
 439 000a FFF7FEFF 		bl	memset
 440              	.LVL21:
 146:Core/Src/main.c **** 
 441              		.loc 1 146 3 is_stmt 1 view .LVU103
 146:Core/Src/main.c **** 
 442              		.loc 1 146 22 is_stmt 0 view .LVU104
 443 000e 0023     		movs	r3, #0
 444 0010 0293     		str	r3, [sp, #8]
 445 0012 0393     		str	r3, [sp, #12]
 446 0014 0493     		str	r3, [sp, #16]
 447 0016 0593     		str	r3, [sp, #20]
 448 0018 0693     		str	r3, [sp, #24]
 150:Core/Src/main.c ****   __HAL_PWR_VOLTAGESCALING_CONFIG(PWR_REGULATOR_VOLTAGE_SCALE3);
 449              		.loc 1 150 3 is_stmt 1 view .LVU105
 450              	.LBB8:
 150:Core/Src/main.c ****   __HAL_PWR_VOLTAGESCALING_CONFIG(PWR_REGULATOR_VOLTAGE_SCALE3);
 451              		.loc 1 150 3 view .LVU106
 452 001a 0093     		str	r3, [sp]
 150:Core/Src/main.c ****   __HAL_PWR_VOLTAGESCALING_CONFIG(PWR_REGULATOR_VOLTAGE_SCALE3);
 453              		.loc 1 150 3 view .LVU107
 454 001c 204A     		ldr	r2, .L29
 455 001e 116C     		ldr	r1, [r2, #64]
 456 0020 41F08051 		orr	r1, r1, #268435456
 457 0024 1164     		str	r1, [r2, #64]
 150:Core/Src/main.c ****   __HAL_PWR_VOLTAGESCALING_CONFIG(PWR_REGULATOR_VOLTAGE_SCALE3);
 458              		.loc 1 150 3 view .LVU108
 459 0026 126C     		ldr	r2, [r2, #64]
 460 0028 02F08052 		and	r2, r2, #268435456
 461 002c 0092     		str	r2, [sp]
 150:Core/Src/main.c ****   __HAL_PWR_VOLTAGESCALING_CONFIG(PWR_REGULATOR_VOLTAGE_SCALE3);
 462              		.loc 1 150 3 view .LVU109
 463 002e 009A     		ldr	r2, [sp]
 464              	.LBE8:
ARM GAS  C:\Users\justi\AppData\Local\Temp\ccXAmVZp.s 			page 17


 150:Core/Src/main.c ****   __HAL_PWR_VOLTAGESCALING_CONFIG(PWR_REGULATOR_VOLTAGE_SCALE3);
 465              		.loc 1 150 3 view .LVU110
 151:Core/Src/main.c **** 
 466              		.loc 1 151 3 view .LVU111
 467              	.LBB9:
 151:Core/Src/main.c **** 
 468              		.loc 1 151 3 view .LVU112
 469 0030 0193     		str	r3, [sp, #4]
 151:Core/Src/main.c **** 
 470              		.loc 1 151 3 view .LVU113
 471 0032 1C4A     		ldr	r2, .L29+4
 472 0034 1368     		ldr	r3, [r2]
 473 0036 23F44043 		bic	r3, r3, #49152
 474 003a 43F48043 		orr	r3, r3, #16384
 475 003e 1360     		str	r3, [r2]
 151:Core/Src/main.c **** 
 476              		.loc 1 151 3 view .LVU114
 477 0040 1368     		ldr	r3, [r2]
 478 0042 03F44043 		and	r3, r3, #49152
 479 0046 0193     		str	r3, [sp, #4]
 151:Core/Src/main.c **** 
 480              		.loc 1 151 3 view .LVU115
 481 0048 019B     		ldr	r3, [sp, #4]
 482              	.LBE9:
 151:Core/Src/main.c **** 
 483              		.loc 1 151 3 view .LVU116
 156:Core/Src/main.c ****   RCC_OscInitStruct.HSEState = RCC_HSE_ON;
 484              		.loc 1 156 3 view .LVU117
 156:Core/Src/main.c ****   RCC_OscInitStruct.HSEState = RCC_HSE_ON;
 485              		.loc 1 156 36 is_stmt 0 view .LVU118
 486 004a 0123     		movs	r3, #1
 487 004c 0793     		str	r3, [sp, #28]
 157:Core/Src/main.c ****   RCC_OscInitStruct.PLL.PLLState = RCC_PLL_ON;
 488              		.loc 1 157 3 is_stmt 1 view .LVU119
 157:Core/Src/main.c ****   RCC_OscInitStruct.PLL.PLLState = RCC_PLL_ON;
 489              		.loc 1 157 30 is_stmt 0 view .LVU120
 490 004e 4FF48033 		mov	r3, #65536
 491 0052 0893     		str	r3, [sp, #32]
 158:Core/Src/main.c ****   RCC_OscInitStruct.PLL.PLLSource = RCC_PLLSOURCE_HSE;
 492              		.loc 1 158 3 is_stmt 1 view .LVU121
 158:Core/Src/main.c ****   RCC_OscInitStruct.PLL.PLLSource = RCC_PLLSOURCE_HSE;
 493              		.loc 1 158 34 is_stmt 0 view .LVU122
 494 0054 0223     		movs	r3, #2
 495 0056 0D93     		str	r3, [sp, #52]
 159:Core/Src/main.c ****   RCC_OscInitStruct.PLL.PLLM = 4;
 496              		.loc 1 159 3 is_stmt 1 view .LVU123
 159:Core/Src/main.c ****   RCC_OscInitStruct.PLL.PLLM = 4;
 497              		.loc 1 159 35 is_stmt 0 view .LVU124
 498 0058 4FF48002 		mov	r2, #4194304
 499 005c 0E92     		str	r2, [sp, #56]
 160:Core/Src/main.c ****   RCC_OscInitStruct.PLL.PLLN = 50;
 500              		.loc 1 160 3 is_stmt 1 view .LVU125
 160:Core/Src/main.c ****   RCC_OscInitStruct.PLL.PLLN = 50;
 501              		.loc 1 160 30 is_stmt 0 view .LVU126
 502 005e 0422     		movs	r2, #4
 503 0060 0F92     		str	r2, [sp, #60]
 161:Core/Src/main.c ****   RCC_OscInitStruct.PLL.PLLP = RCC_PLLP_DIV2;
ARM GAS  C:\Users\justi\AppData\Local\Temp\ccXAmVZp.s 			page 18


 504              		.loc 1 161 3 is_stmt 1 view .LVU127
 161:Core/Src/main.c ****   RCC_OscInitStruct.PLL.PLLP = RCC_PLLP_DIV2;
 505              		.loc 1 161 30 is_stmt 0 view .LVU128
 506 0062 3222     		movs	r2, #50
 507 0064 1092     		str	r2, [sp, #64]
 162:Core/Src/main.c ****   RCC_OscInitStruct.PLL.PLLQ = 2;
 508              		.loc 1 162 3 is_stmt 1 view .LVU129
 162:Core/Src/main.c ****   RCC_OscInitStruct.PLL.PLLQ = 2;
 509              		.loc 1 162 30 is_stmt 0 view .LVU130
 510 0066 1193     		str	r3, [sp, #68]
 163:Core/Src/main.c ****   RCC_OscInitStruct.PLL.PLLR = 2;
 511              		.loc 1 163 3 is_stmt 1 view .LVU131
 163:Core/Src/main.c ****   RCC_OscInitStruct.PLL.PLLR = 2;
 512              		.loc 1 163 30 is_stmt 0 view .LVU132
 513 0068 1293     		str	r3, [sp, #72]
 164:Core/Src/main.c ****   if (HAL_RCC_OscConfig(&RCC_OscInitStruct) != HAL_OK)
 514              		.loc 1 164 3 is_stmt 1 view .LVU133
 164:Core/Src/main.c ****   if (HAL_RCC_OscConfig(&RCC_OscInitStruct) != HAL_OK)
 515              		.loc 1 164 30 is_stmt 0 view .LVU134
 516 006a 1393     		str	r3, [sp, #76]
 165:Core/Src/main.c ****   {
 517              		.loc 1 165 3 is_stmt 1 view .LVU135
 165:Core/Src/main.c ****   {
 518              		.loc 1 165 7 is_stmt 0 view .LVU136
 519 006c 07A8     		add	r0, sp, #28
 520 006e FFF7FEFF 		bl	HAL_RCC_OscConfig
 521              	.LVL22:
 165:Core/Src/main.c ****   {
 522              		.loc 1 165 6 view .LVU137
 523 0072 88B9     		cbnz	r0, .L27
 172:Core/Src/main.c ****                               |RCC_CLOCKTYPE_PCLK1|RCC_CLOCKTYPE_PCLK2;
 524              		.loc 1 172 3 is_stmt 1 view .LVU138
 172:Core/Src/main.c ****                               |RCC_CLOCKTYPE_PCLK1|RCC_CLOCKTYPE_PCLK2;
 525              		.loc 1 172 31 is_stmt 0 view .LVU139
 526 0074 0F23     		movs	r3, #15
 527 0076 0293     		str	r3, [sp, #8]
 174:Core/Src/main.c ****   RCC_ClkInitStruct.AHBCLKDivider = RCC_SYSCLK_DIV1;
 528              		.loc 1 174 3 is_stmt 1 view .LVU140
 174:Core/Src/main.c ****   RCC_ClkInitStruct.AHBCLKDivider = RCC_SYSCLK_DIV1;
 529              		.loc 1 174 34 is_stmt 0 view .LVU141
 530 0078 0223     		movs	r3, #2
 531 007a 0393     		str	r3, [sp, #12]
 175:Core/Src/main.c ****   RCC_ClkInitStruct.APB1CLKDivider = RCC_HCLK_DIV2;
 532              		.loc 1 175 3 is_stmt 1 view .LVU142
 175:Core/Src/main.c ****   RCC_ClkInitStruct.APB1CLKDivider = RCC_HCLK_DIV2;
 533              		.loc 1 175 35 is_stmt 0 view .LVU143
 534 007c 0023     		movs	r3, #0
 535 007e 0493     		str	r3, [sp, #16]
 176:Core/Src/main.c ****   RCC_ClkInitStruct.APB2CLKDivider = RCC_HCLK_DIV1;
 536              		.loc 1 176 3 is_stmt 1 view .LVU144
 176:Core/Src/main.c ****   RCC_ClkInitStruct.APB2CLKDivider = RCC_HCLK_DIV1;
 537              		.loc 1 176 36 is_stmt 0 view .LVU145
 538 0080 4FF48052 		mov	r2, #4096
 539 0084 0592     		str	r2, [sp, #20]
 177:Core/Src/main.c **** 
 540              		.loc 1 177 3 is_stmt 1 view .LVU146
 177:Core/Src/main.c **** 
ARM GAS  C:\Users\justi\AppData\Local\Temp\ccXAmVZp.s 			page 19


 541              		.loc 1 177 36 is_stmt 0 view .LVU147
 542 0086 0693     		str	r3, [sp, #24]
 179:Core/Src/main.c ****   {
 543              		.loc 1 179 3 is_stmt 1 view .LVU148
 179:Core/Src/main.c ****   {
 544              		.loc 1 179 7 is_stmt 0 view .LVU149
 545 0088 0121     		movs	r1, #1
 546 008a 02A8     		add	r0, sp, #8
 547 008c FFF7FEFF 		bl	HAL_RCC_ClockConfig
 548              	.LVL23:
 179:Core/Src/main.c ****   {
 549              		.loc 1 179 6 view .LVU150
 550 0090 20B9     		cbnz	r0, .L28
 183:Core/Src/main.c **** 
 551              		.loc 1 183 1 view .LVU151
 552 0092 15B0     		add	sp, sp, #84
 553              		.cfi_remember_state
 554              		.cfi_def_cfa_offset 4
 555              		@ sp needed
 556 0094 5DF804FB 		ldr	pc, [sp], #4
 557              	.L27:
 558              		.cfi_restore_state
 167:Core/Src/main.c ****   }
 559              		.loc 1 167 5 is_stmt 1 view .LVU152
 560 0098 FFF7FEFF 		bl	Error_Handler
 561              	.LVL24:
 562              	.L28:
 181:Core/Src/main.c ****   }
 563              		.loc 1 181 5 view .LVU153
 564 009c FFF7FEFF 		bl	Error_Handler
 565              	.LVL25:
 566              	.L30:
 567              		.align	2
 568              	.L29:
 569 00a0 00380240 		.word	1073887232
 570 00a4 00700040 		.word	1073770496
 571              		.cfi_endproc
 572              	.LFE131:
 574              		.section	.text.main,"ax",%progbits
 575              		.align	1
 576              		.global	main
 577              		.syntax unified
 578              		.thumb
 579              		.thumb_func
 581              	main:
 582              	.LFB130:
  82:Core/Src/main.c ****   /* USER CODE BEGIN 1 */
 583              		.loc 1 82 1 view -0
 584              		.cfi_startproc
 585              		@ Volatile: function does not return.
 586              		@ args = 0, pretend = 0, frame = 0
 587              		@ frame_needed = 0, uses_anonymous_args = 0
 588 0000 08B5     		push	{r3, lr}
 589              		.cfi_def_cfa_offset 8
 590              		.cfi_offset 3, -8
 591              		.cfi_offset 14, -4
  90:Core/Src/main.c **** 
ARM GAS  C:\Users\justi\AppData\Local\Temp\ccXAmVZp.s 			page 20


 592              		.loc 1 90 3 view .LVU155
 593 0002 FFF7FEFF 		bl	HAL_Init
 594              	.LVL26:
  97:Core/Src/main.c **** 
 595              		.loc 1 97 3 view .LVU156
 596 0006 FFF7FEFF 		bl	SystemClock_Config
 597              	.LVL27:
 104:Core/Src/main.c ****   MX_UART5_Init();
 598              		.loc 1 104 3 view .LVU157
 599 000a FFF7FEFF 		bl	MX_GPIO_Init
 600              	.LVL28:
 105:Core/Src/main.c ****   MX_USART1_UART_Init();
 601              		.loc 1 105 3 view .LVU158
 602 000e FFF7FEFF 		bl	MX_UART5_Init
 603              	.LVL29:
 106:Core/Src/main.c ****   MX_SPI2_Init();
 604              		.loc 1 106 3 view .LVU159
 605 0012 FFF7FEFF 		bl	MX_USART1_UART_Init
 606              	.LVL30:
 107:Core/Src/main.c ****   MX_FATFS_Init();
 607              		.loc 1 107 3 view .LVU160
 608 0016 FFF7FEFF 		bl	MX_SPI2_Init
 609              	.LVL31:
 108:Core/Src/main.c ****   /* USER CODE BEGIN 2 */
 610              		.loc 1 108 3 view .LVU161
 611 001a FFF7FEFF 		bl	MX_FATFS_Init
 612              	.LVL32:
 110:Core/Src/main.c ****   init_LCD();
 613              		.loc 1 110 3 view .LVU162
 614 001e FFF7FEFF 		bl	init_LCD_pins
 615              	.LVL33:
 111:Core/Src/main.c ****   HAL_Delay(10);
 616              		.loc 1 111 3 view .LVU163
 617 0022 FFF7FEFF 		bl	init_LCD
 618              	.LVL34:
 112:Core/Src/main.c **** 
 619              		.loc 1 112 3 view .LVU164
 620 0026 0A20     		movs	r0, #10
 621 0028 FFF7FEFF 		bl	HAL_Delay
 622              	.LVL35:
 114:Core/Src/main.c ****   HAL_UART_Receive_IT(&huart5,&incoming_byte,1); //receive data from data buffer interrupt mode
 623              		.loc 1 114 3 view .LVU165
 624 002c FFF7FEFF 		bl	update_lcd
 625              	.LVL36:
 115:Core/Src/main.c **** 
 626              		.loc 1 115 3 view .LVU166
 627 0030 0122     		movs	r2, #1
 628 0032 1349     		ldr	r1, .L36
 629 0034 1348     		ldr	r0, .L36+4
 630 0036 FFF7FEFF 		bl	HAL_UART_Receive_IT
 631              	.LVL37:
 632 003a 0EE0     		b	.L33
 633              	.L35:
 634              	.LBB10:
 126:Core/Src/main.c ****       last_heartbeat++;
 635              		.loc 1 126 7 view .LVU167
 126:Core/Src/main.c ****       last_heartbeat++;
ARM GAS  C:\Users\justi\AppData\Local\Temp\ccXAmVZp.s 			page 21


 636              		.loc 1 126 14 is_stmt 0 view .LVU168
 637 003c 124A     		ldr	r2, .L36+8
 638 003e 1378     		ldrb	r3, [r2]	@ zero_extendqisi2
 639 0040 0133     		adds	r3, r3, #1
 640 0042 1370     		strb	r3, [r2]
 127:Core/Src/main.c ****       cnt = 0;
 641              		.loc 1 127 7 is_stmt 1 view .LVU169
 127:Core/Src/main.c ****       cnt = 0;
 642              		.loc 1 127 21 is_stmt 0 view .LVU170
 643 0044 114A     		ldr	r2, .L36+12
 644 0046 1388     		ldrh	r3, [r2]
 645 0048 0133     		adds	r3, r3, #1
 646 004a 1380     		strh	r3, [r2]	@ movhi
 128:Core/Src/main.c ****       update_lcd();
 647              		.loc 1 128 7 is_stmt 1 view .LVU171
 128:Core/Src/main.c ****       update_lcd();
 648              		.loc 1 128 11 is_stmt 0 view .LVU172
 649 004c 104B     		ldr	r3, .L36+16
 650 004e 0022     		movs	r2, #0
 651 0050 1A80     		strh	r2, [r3]	@ movhi
 129:Core/Src/main.c ****     }
 652              		.loc 1 129 7 is_stmt 1 view .LVU173
 653 0052 FFF7FEFF 		bl	update_lcd
 654              	.LVL38:
 655              	.L32:
 131:Core/Src/main.c ****     /* USER CODE END WHILE */
 656              		.loc 1 131 5 view .LVU174
 657 0056 FFF7FEFF 		bl	update_leds
 658              	.LVL39:
 659              	.LBE10:
 121:Core/Src/main.c ****   {
 660              		.loc 1 121 9 view .LVU175
 661              	.L33:
 121:Core/Src/main.c ****   {
 662              		.loc 1 121 3 view .LVU176
 663              	.LBB11:
 123:Core/Src/main.c ****     cnt++;
 664              		.loc 1 123 5 view .LVU177
 665 005a 0120     		movs	r0, #1
 666 005c FFF7FEFF 		bl	HAL_Delay
 667              	.LVL40:
 124:Core/Src/main.c ****     if(cnt%delay_ms == 0) {
 668              		.loc 1 124 5 view .LVU178
 124:Core/Src/main.c ****     if(cnt%delay_ms == 0) {
 669              		.loc 1 124 8 is_stmt 0 view .LVU179
 670 0060 0B4A     		ldr	r2, .L36+16
 671 0062 1388     		ldrh	r3, [r2]
 672 0064 0133     		adds	r3, r3, #1
 673 0066 9BB2     		uxth	r3, r3
 674 0068 1380     		strh	r3, [r2]	@ movhi
 125:Core/Src/main.c ****       led_val++;
 675              		.loc 1 125 5 is_stmt 1 view .LVU180
 125:Core/Src/main.c ****       led_val++;
 676              		.loc 1 125 21 is_stmt 0 view .LVU181
 677 006a 0A4A     		ldr	r2, .L36+20
 678 006c 1288     		ldrh	r2, [r2]
 679 006e B3FBF2F1 		udiv	r1, r3, r2
ARM GAS  C:\Users\justi\AppData\Local\Temp\ccXAmVZp.s 			page 22


 680 0072 02FB1133 		mls	r3, r2, r1, r3
 681 0076 9BB2     		uxth	r3, r3
 125:Core/Src/main.c ****       led_val++;
 682              		.loc 1 125 7 view .LVU182
 683 0078 002B     		cmp	r3, #0
 684 007a DFD0     		beq	.L35
 685 007c EBE7     		b	.L32
 686              	.L37:
 687 007e 00BF     		.align	2
 688              	.L36:
 689 0080 00000000 		.word	incoming_byte
 690 0084 00000000 		.word	huart5
 691 0088 00000000 		.word	led_val
 692 008c 00000000 		.word	last_heartbeat
 693 0090 00000000 		.word	cnt
 694 0094 00000000 		.word	delay_ms
 695              	.LBE11:
 696              		.cfi_endproc
 697              	.LFE130:
 699              		.global	cnt
 700              		.section	.bss.cnt,"aw",%nobits
 701              		.align	1
 704              	cnt:
 705 0000 0000     		.space	2
 706              		.global	line_two
 707              		.section	.bss.line_two,"aw",%nobits
 708              		.align	2
 711              	line_two:
 712 0000 00000000 		.space	25
 712      00000000 
 712      00000000 
 712      00000000 
 712      00000000 
 713              		.global	line_one
 714              		.section	.bss.line_one,"aw",%nobits
 715              		.align	2
 718              	line_one:
 719 0000 00000000 		.space	25
 719      00000000 
 719      00000000 
 719      00000000 
 719      00000000 
 720              		.global	recvd_data
 721              		.section	.bss.recvd_data,"aw",%nobits
 722              		.align	2
 725              	recvd_data:
 726 0000 00000000 		.space	7
 726      000000
 727              		.global	output_buff
 728              		.section	.bss.output_buff,"aw",%nobits
 729              		.align	2
 732              	output_buff:
 733 0000 00000000 		.space	5
 733      00
 734              		.global	incoming_byte
 735              		.section	.bss.incoming_byte,"aw",%nobits
 738              	incoming_byte:
ARM GAS  C:\Users\justi\AppData\Local\Temp\ccXAmVZp.s 			page 23


 739 0000 00       		.space	1
 740              		.global	last_val
 741              		.section	.bss.last_val,"aw",%nobits
 742              		.align	1
 745              	last_val:
 746 0000 0000     		.space	2
 747              		.global	last_heartbeat
 748              		.section	.bss.last_heartbeat,"aw",%nobits
 749              		.align	1
 752              	last_heartbeat:
 753 0000 0000     		.space	2
 754              		.global	last_sensor
 755              		.section	.bss.last_sensor,"aw",%nobits
 758              	last_sensor:
 759 0000 00       		.space	1
 760              		.global	last_device_id
 761              		.section	.bss.last_device_id,"aw",%nobits
 764              	last_device_id:
 765 0000 00       		.space	1
 766              		.global	delay_ms
 767              		.section	.data.delay_ms,"aw"
 768              		.align	1
 771              	delay_ms:
 772 0000 F401     		.short	500
 773              		.global	led_val
 774              		.section	.bss.led_val,"aw",%nobits
 777              	led_val:
 778 0000 00       		.space	1
 779              		.text
 780              	.Letext0:
 781              		.file 3 "c:\\users\\justi\\appdata\\roaming\\code\\user\\globalstorage\\bmd.stm32-for-vscode\\@xpa
 782              		.file 4 "c:\\users\\justi\\appdata\\roaming\\code\\user\\globalstorage\\bmd.stm32-for-vscode\\@xpa
 783              		.file 5 "Drivers/CMSIS/Device/ST/STM32F4xx/Include/stm32f446xx.h"
 784              		.file 6 "Drivers/STM32F4xx_HAL_Driver/Inc/stm32f4xx_hal_def.h"
 785              		.file 7 "Drivers/STM32F4xx_HAL_Driver/Inc/stm32f4xx_hal_rcc_ex.h"
 786              		.file 8 "Drivers/STM32F4xx_HAL_Driver/Inc/stm32f4xx_hal_rcc.h"
 787              		.file 9 "Drivers/STM32F4xx_HAL_Driver/Inc/stm32f4xx_hal_dma.h"
 788              		.file 10 "Drivers/STM32F4xx_HAL_Driver/Inc/stm32f4xx_hal_uart.h"
 789              		.file 11 "Core/Inc/usart.h"
 790              		.file 12 "Drivers/STM32F4xx_HAL_Driver/Inc/stm32f4xx_hal_gpio.h"
 791              		.file 13 "Core/Inc/lcd_stm32f0.h"
 792              		.file 14 "Drivers/STM32F4xx_HAL_Driver/Inc/stm32f4xx_hal.h"
 793              		.file 15 "Core/Inc/spi.h"
 794              		.file 16 "Core/Inc/gpio.h"
 795              		.file 17 "<built-in>"
ARM GAS  C:\Users\justi\AppData\Local\Temp\ccXAmVZp.s 			page 24

